(lp0
(lp1
S'frame10.jpg'
p2
aS'again'
p3
aa(lp4
S'frame11.jpg'
p5
ag3
aa(lp6
S'frame12.jpg'
p7
ag3
aa(lp8
S'frame13.jpg'
p9
ag3
aa(lp10
S'frame14.jpg'
p11
ag3
aa(lp12
S'frame15.jpg'
p13
ag3
aa(lp14
S'frame16.jpg'
p15
ag3
aa(lp16
S'frame17.jpg'
p17
ag3
aa(lp18
S'frame18.jpg'
p19
ag3
aa(lp20
S'frame19.jpg'
p21
ag3
aa(lp22
S'frame20.jpg'
p23
ag3
aa(lp24
S'frame21.jpg'
p25
ag3
aa(lp26
S'frame22.jpg'
p27
ag3
aa(lp28
S'frame9.jpg'
p29
ag3
aa(lp30
S'N File1.jpg'
p31
ag3
aa(lp32
S'N File10.jpg'
p33
ag3
aa(lp34
S'N File11.jpg'
p35
ag3
aa(lp36
S'N File12.jpg'
p37
ag3
aa(lp38
S'N File13.jpg'
p39
ag3
aa(lp40
S'N File14.jpg'
p41
ag3
aa(lp42
S'N File15.jpg'
p43
ag3
aa(lp44
S'N File16.jpg'
p45
ag3
aa(lp46
S'N File17.jpg'
p47
ag3
aa(lp48
S'N File18.jpg'
p49
ag3
aa(lp50
S'N File19.jpg'
p51
ag3
aa(lp52
S'N File2.jpg'
p53
ag3
aa(lp54
S'N File20.jpg'
p55
ag3
aa(lp56
S'N File21.jpg'
p57
ag3
aa(lp58
S'N File3.jpg'
p59
ag3
aa(lp60
S'N File4.jpg'
p61
ag3
aa(lp62
S'N File5.jpg'
p63
ag3
aa(lp64
S'N File6.jpg'
p65
ag3
aa(lp66
S'N File7.jpg'
p67
ag3
aa(lp68
S'N File8.jpg'
p69
ag3
aa(lp70
S'N File9.jpg'
p71
ag3
aa(lp72
S'Ni File1.jpg'
p73
ag3
aa(lp74
S'Ni File10.jpg'
p75
ag3
aa(lp76
S'Ni File11.jpg'
p77
ag3
aa(lp78
S'Ni File12.jpg'
p79
ag3
aa(lp80
S'Ni File13.jpg'
p81
ag3
aa(lp82
S'Ni File14.jpg'
p83
ag3
aa(lp84
S'Ni File15.jpg'
p85
ag3
aa(lp86
S'Ni File16.jpg'
p87
ag3
aa(lp88
S'Ni File17.jpg'
p89
ag3
aa(lp90
S'Ni File2.jpg'
p91
ag3
aa(lp92
S'Ni File3.jpg'
p93
ag3
aa(lp94
S'Ni File4.jpg'
p95
ag3
aa(lp96
S'Ni File5.jpg'
p97
ag3
aa(lp98
S'Ni File6.jpg'
p99
ag3
aa(lp100
S'Ni File7.jpg'
p101
ag3
aa(lp102
S'Ni File8.jpg'
p103
ag3
aa(lp104
S'Ni File9.jpg'
p105
ag3
aa(lp106
S'OneFile15.jpg'
p107
ag3
aa(lp108
S'OneFile16.jpg'
p109
ag3
aa(lp110
S'OneFile17.jpg'
p111
ag3
aa(lp112
S'OneFile18.jpg'
p113
ag3
aa(lp114
S'OneFile19.jpg'
p115
ag3
aa(lp116
S'OneFile20.jpg'
p117
ag3
aa(lp118
S'OneFile21.jpg'
p119
ag3
aa(lp120
S'OneFile22.jpg'
p121
ag3
aa(lp122
S'OneFile23.jpg'
p123
ag3
aa(lp124
S'OneFile24.jpg'
p125
ag3
aa(lp126
S'OneFile25.jpg'
p127
ag3
aa(lp128
S'OneFile26.jpg'
p129
ag3
aa(lp130
S'OneFile27.jpg'
p131
ag3
aa(lp132
S'OneFile28.jpg'
p133
ag3
aa(lp134
S'OneFile29.jpg'
p135
ag3
aa(lp136
S'OneFile30.jpg'
p137
ag3
aa(lp138
S'OneFile31.jpg'
p139
ag3
aa(lp140
S'OneFile32.jpg'
p141
ag3
aa(lp142
S'OneFile33.jpg'
p143
ag3
aa(lp144
S'OneFile34.jpg'
p145
ag3
aa(lp146
S'OneFile35.jpg'
p147
ag3
aa(lp148
S'OneFile36.jpg'
p149
ag3
aa(lp150
S'OneFile37.jpg'
p151
ag3
aa(lp152
S'OneFile38.jpg'
p153
ag3
aa(lp154
S'OneFile39.jpg'
p155
ag3
aa(lp156
S'OneFile40.jpg'
p157
ag3
aa(lp158
S'OneFile41.jpg'
p159
ag3
aa(lp160
S'OneFile42.jpg'
p161
ag3
aa(lp162
S'OneFile43.jpg'
p163
ag3
aa(lp164
S'OneFile44.jpg'
p165
ag3
aa(lp166
S'OneFile45.jpg'
p167
ag3
aa(lp168
S'OneFile46.jpg'
p169
ag3
aa(lp170
S'OneFile47.jpg'
p171
ag3
aa(lp172
S'OneFile48.jpg'
p173
ag3
aa(lp174
S'OneFile49.jpg'
p175
ag3
aa(lp176
S'P File1.jpg'
p177
ag3
aa(lp178
S'P File10.jpg'
p179
ag3
aa(lp180
S'P File11.jpg'
p181
ag3
aa(lp182
S'P File12.jpg'
p183
ag3
aa(lp184
S'P File13.jpg'
p185
ag3
aa(lp186
S'P File14.jpg'
p187
ag3
aa(lp188
S'P File15.jpg'
p189
ag3
aa(lp190
S'P File16.jpg'
p191
ag3
aa(lp192
S'P File17.jpg'
p193
ag3
aa(lp194
S'P File18.jpg'
p195
ag3
aa(lp196
S'P File19.jpg'
p197
ag3
aa(lp198
S'P File2.jpg'
p199
ag3
aa(lp200
S'P File20.jpg'
p201
ag3
aa(lp202
S'P File3.jpg'
p203
ag3
aa(lp204
S'P File4.jpg'
p205
ag3
aa(lp206
S'P File5.jpg'
p207
ag3
aa(lp208
S'P File6.jpg'
p209
ag3
aa(lp210
S'P File7.jpg'
p211
ag3
aa(lp212
S'P File8.jpg'
p213
ag3
aa(lp214
S'P File9.jpg'
p215
ag3
aa(lp216
S'PavOneFrame0.jpg'
p217
ag3
aa(lp218
S'PavOneFrame1.jpg'
p219
ag3
aa(lp220
S'PavOneFrame10.jpg'
p221
ag3
aa(lp222
S'PavOneFrame11.jpg'
p223
ag3
aa(lp224
S'PavOneFrame12.jpg'
p225
ag3
aa(lp226
S'PavOneFrame13.jpg'
p227
ag3
aa(lp228
S'PavOneFrame14.jpg'
p229
ag3
aa(lp230
S'PavOneFrame15.jpg'
p231
ag3
aa(lp232
S'PavOneFrame16.jpg'
p233
ag3
aa(lp234
S'PavOneFrame17.jpg'
p235
ag3
aa(lp236
S'PavOneFrame18.jpg'
p237
ag3
aa(lp238
S'PavOneFrame19.jpg'
p239
ag3
aa(lp240
S'PavOneFrame2.jpg'
p241
ag3
aa(lp242
S'PavOneFrame3.jpg'
p243
ag3
aa(lp244
S'PavOneFrame4.jpg'
p245
ag3
aa(lp246
S'PavOneFrame5.jpg'
p247
ag3
aa(lp248
S'PavOneFrame6.jpg'
p249
ag3
aa(lp250
S'PavOneFrame7.jpg'
p251
ag3
aa(lp252
S'PavOneFrame8.jpg'
p253
ag3
aa(lp254
S'PavOneFrame9.jpg'
p255
ag3
aa(lp256
S'PavThree0.jpg'
p257
ag3
aa(lp258
S'PavThree1.jpg'
p259
ag3
aa(lp260
S'PavThree10.jpg'
p261
ag3
aa(lp262
S'PavThree11.jpg'
p263
ag3
aa(lp264
S'PavThree12.jpg'
p265
ag3
aa(lp266
S'PavThree13.jpg'
p267
ag3
aa(lp268
S'PavThree14.jpg'
p269
ag3
aa(lp270
S'PavThree15.jpg'
p271
ag3
aa(lp272
S'PavThree16.jpg'
p273
ag3
aa(lp274
S'PavThree17.jpg'
p275
ag3
aa(lp276
S'PavThree18.jpg'
p277
ag3
aa(lp278
S'PavThree19.jpg'
p279
ag3
aa(lp280
S'PavThree2.jpg'
p281
ag3
aa(lp282
S'PavThree20.jpg'
p283
ag3
aa(lp284
S'PavThree21.jpg'
p285
ag3
aa(lp286
S'PavThree22.jpg'
p287
ag3
aa(lp288
S'PavThree23.jpg'
p289
ag3
aa(lp290
S'PavThree24.jpg'
p291
ag3
aa(lp292
S'PavThree25.jpg'
p293
ag3
aa(lp294
S'PavThree26.jpg'
p295
ag3
aa(lp296
S'PavThree27.jpg'
p297
ag3
aa(lp298
S'PavThree28.jpg'
p299
ag3
aa(lp300
S'PavThree29.jpg'
p301
ag3
aa(lp302
S'PavThree3.jpg'
p303
ag3
aa(lp304
S'PavThree30.jpg'
p305
ag3
aa(lp306
S'PavThree31.jpg'
p307
ag3
aa(lp308
S'PavThree4.jpg'
p309
ag3
aa(lp310
S'PavThree5.jpg'
p311
ag3
aa(lp312
S'PavThree6.jpg'
p313
ag3
aa(lp314
S'PavThree7.jpg'
p315
ag3
aa(lp316
S'PavThree8.jpg'
p317
ag3
aa(lp318
S'PavThree9.jpg'
p319
ag3
aa(lp320
S'PavTwo0.jpg'
p321
ag3
aa(lp322
S'PavTwo1.jpg'
p323
ag3
aa(lp324
S'PavTwo10.jpg'
p325
ag3
aa(lp326
S'PavTwo11.jpg'
p327
ag3
aa(lp328
S'PavTwo12.jpg'
p329
ag3
aa(lp330
S'PavTwo13.jpg'
p331
ag3
aa(lp332
S'PavTwo14.jpg'
p333
ag3
aa(lp334
S'PavTwo15.jpg'
p335
ag3
aa(lp336
S'PavTwo16.jpg'
p337
ag3
aa(lp338
S'PavTwo17.jpg'
p339
ag3
aa(lp340
S'PavTwo18.jpg'
p341
ag3
aa(lp342
S'PavTwo19.jpg'
p343
ag3
aa(lp344
S'PavTwo2.jpg'
p345
ag3
aa(lp346
S'PavTwo20.jpg'
p347
ag3
aa(lp348
S'PavTwo21.jpg'
p349
ag3
aa(lp350
S'PavTwo22.jpg'
p351
ag3
aa(lp352
S'PavTwo23.jpg'
p353
ag3
aa(lp354
S'PavTwo24.jpg'
p355
ag3
aa(lp356
S'PavTwo25.jpg'
p357
ag3
aa(lp358
S'PavTwo26.jpg'
p359
ag3
aa(lp360
S'PavTwo27.jpg'
p361
ag3
aa(lp362
S'PavTwo28.jpg'
p363
ag3
aa(lp364
S'PavTwo29.jpg'
p365
ag3
aa(lp366
S'PavTwo3.jpg'
p367
ag3
aa(lp368
S'PavTwo30.jpg'
p369
ag3
aa(lp370
S'PavTwo31.jpg'
p371
ag3
aa(lp372
S'PavTwo32.jpg'
p373
ag3
aa(lp374
S'PavTwo4.jpg'
p375
ag3
aa(lp376
S'PavTwo5.jpg'
p377
ag3
aa(lp378
S'PavTwo6.jpg'
p379
ag3
aa(lp380
S'PavTwo7.jpg'
p381
ag3
aa(lp382
S'PavTwo8.jpg'
p383
ag3
aa(lp384
S'PavTwo9.jpg'
p385
ag3
aa(lp386
S'Payel1.jpg'
p387
ag3
aa(lp388
S'Payel10.jpg'
p389
ag3
aa(lp390
S'Payel11.jpg'
p391
ag3
aa(lp392
S'Payel12.jpg'
p393
ag3
aa(lp394
S'Payel13.jpg'
p395
ag3
aa(lp396
S'Payel14.jpg'
p397
ag3
aa(lp398
S'Payel15.jpg'
p399
ag3
aa(lp400
S'Payel16.jpg'
p401
ag3
aa(lp402
S'Payel17.jpg'
p403
ag3
aa(lp404
S'Payel18.jpg'
p405
ag3
aa(lp406
S'Payel19.jpg'
p407
ag3
aa(lp408
S'Payel2.jpg'
p409
ag3
aa(lp410
S'Payel20.jpg'
p411
ag3
aa(lp412
S'Payel21.jpg'
p413
ag3
aa(lp414
S'Payel22.jpg'
p415
ag3
aa(lp416
S'Payel23.jpg'
p417
ag3
aa(lp418
S'Payel24.jpg'
p419
ag3
aa(lp420
S'Payel25.jpg'
p421
ag3
aa(lp422
S'Payel26.jpg'
p423
ag3
aa(lp424
S'Payel27.jpg'
p425
ag3
aa(lp426
S'Payel28.jpg'
p427
ag3
aa(lp428
S'Payel29.jpg'
p429
ag3
aa(lp430
S'Payel3.jpg'
p431
ag3
aa(lp432
S'Payel30.jpg'
p433
ag3
aa(lp434
S'Payel31.jpg'
p435
ag3
aa(lp436
S'Payel32.jpg'
p437
ag3
aa(lp438
S'Payel33.jpg'
p439
ag3
aa(lp440
S'Payel34.jpg'
p441
ag3
aa(lp442
S'Payel35.jpg'
p443
ag3
aa(lp444
S'Payel36.jpg'
p445
ag3
aa(lp446
S'Payel37.jpg'
p447
ag3
aa(lp448
S'Payel38.jpg'
p449
ag3
aa(lp450
S'Payel39.jpg'
p451
ag3
aa(lp452
S'Payel4.jpg'
p453
ag3
aa(lp454
S'Payel40.jpg'
p455
ag3
aa(lp456
S'Payel41.jpg'
p457
ag3
aa(lp458
S'Payel42.jpg'
p459
ag3
aa(lp460
S'Payel43.jpg'
p461
ag3
aa(lp462
S'Payel44.jpg'
p463
ag3
aa(lp464
S'Payel45.jpg'
p465
ag3
aa(lp466
S'Payel46.jpg'
p467
ag3
aa(lp468
S'Payel47.jpg'
p469
ag3
aa(lp470
S'Payel48.jpg'
p471
ag3
aa(lp472
S'Payel49.jpg'
p473
ag3
aa(lp474
S'Payel5.jpg'
p475
ag3
aa(lp476
S'Payel50.jpg'
p477
ag3
aa(lp478
S'Payel51.jpg'
p479
ag3
aa(lp480
S'Payel52.jpg'
p481
ag3
aa(lp482
S'Payel53.jpg'
p483
ag3
aa(lp484
S'Payel54.jpg'
p485
ag3
aa(lp486
S'Payel55.jpg'
p487
ag3
aa(lp488
S'Payel56.jpg'
p489
ag3
aa(lp490
S'Payel57.jpg'
p491
ag3
aa(lp492
S'Payel58.jpg'
p493
ag3
aa(lp494
S'Payel59.jpg'
p495
ag3
aa(lp496
S'Payel6.jpg'
p497
ag3
aa(lp498
S'Payel60.jpg'
p499
ag3
aa(lp500
S'Payel61.jpg'
p501
ag3
aa(lp502
S'Payel62.jpg'
p503
ag3
aa(lp504
S'Payel63.jpg'
p505
ag3
aa(lp506
S'Payel64.jpg'
p507
ag3
aa(lp508
S'Payel65.jpg'
p509
ag3
aa(lp510
S'Payel7.jpg'
p511
ag3
aa(lp512
S'Payel8.jpg'
p513
ag3
aa(lp514
S'Payel9.jpg'
p515
ag3
aa(lp516
S'PTwo1.jpg'
p517
ag3
aa(lp518
S'PTwo10.jpg'
p519
ag3
aa(lp520
S'PTwo11.jpg'
p521
ag3
aa(lp522
S'PTwo12.jpg'
p523
ag3
aa(lp524
S'PTwo13.jpg'
p525
ag3
aa(lp526
S'PTwo14.jpg'
p527
ag3
aa(lp528
S'PTwo15.jpg'
p529
ag3
aa(lp530
S'PTwo16.jpg'
p531
ag3
aa(lp532
S'PTwo17.jpg'
p533
ag3
aa(lp534
S'PTwo18.jpg'
p535
ag3
aa(lp536
S'PTwo19.jpg'
p537
ag3
aa(lp538
S'PTwo2.jpg'
p539
ag3
aa(lp540
S'PTwo20.jpg'
p541
ag3
aa(lp542
S'PTwo21.jpg'
p543
ag3
aa(lp544
S'PTwo22.jpg'
p545
ag3
aa(lp546
S'PTwo23.jpg'
p547
ag3
aa(lp548
S'PTwo24.jpg'
p549
ag3
aa(lp550
S'PTwo25.jpg'
p551
ag3
aa(lp552
S'PTwo26.jpg'
p553
ag3
aa(lp554
S'PTwo27.jpg'
p555
ag3
aa(lp556
S'PTwo28.jpg'
p557
ag3
aa(lp558
S'PTwo29.jpg'
p559
ag3
aa(lp560
S'PTwo3.jpg'
p561
ag3
aa(lp562
S'PTwo30.jpg'
p563
ag3
aa(lp564
S'PTwo31.jpg'
p565
ag3
aa(lp566
S'PTwo32.jpg'
p567
ag3
aa(lp568
S'PTwo33.jpg'
p569
ag3
aa(lp570
S'PTwo34.jpg'
p571
ag3
aa(lp572
S'PTwo35.jpg'
p573
ag3
aa(lp574
S'PTwo36.jpg'
p575
ag3
aa(lp576
S'PTwo37.jpg'
p577
ag3
aa(lp578
S'PTwo38.jpg'
p579
ag3
aa(lp580
S'PTwo39.jpg'
p581
ag3
aa(lp582
S'PTwo4.jpg'
p583
ag3
aa(lp584
S'PTwo40.jpg'
p585
ag3
aa(lp586
S'PTwo41.jpg'
p587
ag3
aa(lp588
S'PTwo42.jpg'
p589
ag3
aa(lp590
S'PTwo43.jpg'
p591
ag3
aa(lp592
S'PTwo44.jpg'
p593
ag3
aa(lp594
S'PTwo45.jpg'
p595
ag3
aa(lp596
S'PTwo46.jpg'
p597
ag3
aa(lp598
S'PTwo47.jpg'
p599
ag3
aa(lp600
S'PTwo48.jpg'
p601
ag3
aa(lp602
S'PTwo49.jpg'
p603
ag3
aa(lp604
S'PTwo5.jpg'
p605
ag3
aa(lp606
S'PTwo50.jpg'
p607
ag3
aa(lp608
S'PTwo51.jpg'
p609
ag3
aa(lp610
S'PTwo52.jpg'
p611
ag3
aa(lp612
S'PTwo53.jpg'
p613
ag3
aa(lp614
S'PTwo54.jpg'
p615
ag3
aa(lp616
S'PTwo55.jpg'
p617
ag3
aa(lp618
S'PTwo56.jpg'
p619
ag3
aa(lp620
S'PTwo57.jpg'
p621
ag3
aa(lp622
S'PTwo58.jpg'
p623
ag3
aa(lp624
S'PTwo59.jpg'
p625
ag3
aa(lp626
S'PTwo6.jpg'
p627
ag3
aa(lp628
S'PTwo60.jpg'
p629
ag3
aa(lp630
S'PTwo61.jpg'
p631
ag3
aa(lp632
S'PTwo62.jpg'
p633
ag3
aa(lp634
S'PTwo63.jpg'
p635
ag3
aa(lp636
S'PTwo64.jpg'
p637
ag3
aa(lp638
S'PTwo65.jpg'
p639
ag3
aa(lp640
S'PTwo7.jpg'
p641
ag3
aa(lp642
S'PTwo8.jpg'
p643
ag3
aa(lp644
S'PTwo9.jpg'
p645
ag3
aa(lp646
S'S File1.jpg'
p647
ag3
aa(lp648
S'S File10.jpg'
p649
ag3
aa(lp650
S'S File11.jpg'
p651
ag3
aa(lp652
S'S File12.jpg'
p653
ag3
aa(lp654
S'S File13.jpg'
p655
ag3
aa(lp656
S'S File14.jpg'
p657
ag3
aa(lp658
S'S File15.jpg'
p659
ag3
aa(lp660
S'S File16.jpg'
p661
ag3
aa(lp662
S'S File17.jpg'
p663
ag3
aa(lp664
S'S File18.jpg'
p665
ag3
aa(lp666
S'S File19.jpg'
p667
ag3
aa(lp668
S'S File2.jpg'
p669
ag3
aa(lp670
S'S File20.jpg'
p671
ag3
aa(lp672
S'S File21.jpg'
p673
ag3
aa(lp674
S'S File22.jpg'
p675
ag3
aa(lp676
S'S File23.jpg'
p677
ag3
aa(lp678
S'S File24.jpg'
p679
ag3
aa(lp680
S'S File25.jpg'
p681
ag3
aa(lp682
S'S File26.jpg'
p683
ag3
aa(lp684
S'S File27.jpg'
p685
ag3
aa(lp686
S'S File28.jpg'
p687
ag3
aa(lp688
S'S File3.jpg'
p689
ag3
aa(lp690
S'S File4.jpg'
p691
ag3
aa(lp692
S'S File5.jpg'
p693
ag3
aa(lp694
S'S File6.jpg'
p695
ag3
aa(lp696
S'S File7.jpg'
p697
ag3
aa(lp698
S'S File8.jpg'
p699
ag3
aa(lp700
S'S File9.jpg'
p701
ag3
aa(lp702
S'SSec1.jpg'
p703
ag3
aa(lp704
S'SSec10.jpg'
p705
ag3
aa(lp706
S'SSec11.jpg'
p707
ag3
aa(lp708
S'SSec12.jpg'
p709
ag3
aa(lp710
S'SSec13.jpg'
p711
ag3
aa(lp712
S'SSec14.jpg'
p713
ag3
aa(lp714
S'SSec15.jpg'
p715
ag3
aa(lp716
S'SSec16.jpg'
p717
ag3
aa(lp718
S'SSec17.jpg'
p719
ag3
aa(lp720
S'SSec18.jpg'
p721
ag3
aa(lp722
S'SSec19.jpg'
p723
ag3
aa(lp724
S'SSec2.jpg'
p725
ag3
aa(lp726
S'SSec20.jpg'
p727
ag3
aa(lp728
S'SSec21.jpg'
p729
ag3
aa(lp730
S'SSec22.jpg'
p731
ag3
aa(lp732
S'SSec23.jpg'
p733
ag3
aa(lp734
S'SSec24.jpg'
p735
ag3
aa(lp736
S'SSec25.jpg'
p737
ag3
aa(lp738
S'SSec26.jpg'
p739
ag3
aa(lp740
S'SSec27.jpg'
p741
ag3
aa(lp742
S'SSec28.jpg'
p743
ag3
aa(lp744
S'SSec29.jpg'
p745
ag3
aa(lp746
S'SSec3.jpg'
p747
ag3
aa(lp748
S'SSec30.jpg'
p749
ag3
aa(lp750
S'SSec31.jpg'
p751
ag3
aa(lp752
S'SSec32.jpg'
p753
ag3
aa(lp754
S'SSec33.jpg'
p755
ag3
aa(lp756
S'SSec34.jpg'
p757
ag3
aa(lp758
S'SSec35.jpg'
p759
ag3
aa(lp760
S'SSec36.jpg'
p761
ag3
aa(lp762
S'SSec37.jpg'
p763
ag3
aa(lp764
S'SSec38.jpg'
p765
ag3
aa(lp766
S'SSec39.jpg'
p767
ag3
aa(lp768
S'SSec4.jpg'
p769
ag3
aa(lp770
S'SSec40.jpg'
p771
ag3
aa(lp772
S'SSec41.jpg'
p773
ag3
aa(lp774
S'SSec42.jpg'
p775
ag3
aa(lp776
S'SSec43.jpg'
p777
ag3
aa(lp778
S'SSec44.jpg'
p779
ag3
aa(lp780
S'SSec45.jpg'
p781
ag3
aa(lp782
S'SSec46.jpg'
p783
ag3
aa(lp784
S'SSec47.jpg'
p785
ag3
aa(lp786
S'SSec48.jpg'
p787
ag3
aa(lp788
S'SSec49.jpg'
p789
ag3
aa(lp790
S'SSec5.jpg'
p791
ag3
aa(lp792
S'SSec50.jpg'
p793
ag3
aa(lp794
S'SSec51.jpg'
p795
ag3
aa(lp796
S'SSec52.jpg'
p797
ag3
aa(lp798
S'SSec53.jpg'
p799
ag3
aa(lp800
S'SSec54.jpg'
p801
ag3
aa(lp802
S'SSec55.jpg'
p803
ag3
aa(lp804
S'SSec56.jpg'
p805
ag3
aa(lp806
S'SSec57.jpg'
p807
ag3
aa(lp808
S'SSec58.jpg'
p809
ag3
aa(lp810
S'SSec59.jpg'
p811
ag3
aa(lp812
S'SSec6.jpg'
p813
ag3
aa(lp814
S'SSec60.jpg'
p815
ag3
aa(lp816
S'SSec61.jpg'
p817
ag3
aa(lp818
S'SSec62.jpg'
p819
ag3
aa(lp820
S'SSec63.jpg'
p821
ag3
aa(lp822
S'SSec64.jpg'
p823
ag3
aa(lp824
S'SSec65.jpg'
p825
ag3
aa(lp826
S'SSec66.jpg'
p827
ag3
aa(lp828
S'SSec67.jpg'
p829
ag3
aa(lp830
S'SSec68.jpg'
p831
ag3
aa(lp832
S'SSec69.jpg'
p833
ag3
aa(lp834
S'SSec7.jpg'
p835
ag3
aa(lp836
S'SSec70.jpg'
p837
ag3
aa(lp838
S'SSec71.jpg'
p839
ag3
aa(lp840
S'SSec72.jpg'
p841
ag3
aa(lp842
S'SSec73.jpg'
p843
ag3
aa(lp844
S'SSec74.jpg'
p845
ag3
aa(lp846
S'SSec75.jpg'
p847
ag3
aa(lp848
S'SSec76.jpg'
p849
ag3
aa(lp850
S'SSec77.jpg'
p851
ag3
aa(lp852
S'SSec8.jpg'
p853
ag3
aa(lp854
S'SSec9.jpg'
p855
ag3
aa(lp856
S'ThreeFile30.jpg'
p857
ag3
aa(lp858
S'ThreeFile31.jpg'
p859
ag3
aa(lp860
S'ThreeFile32.jpg'
p861
ag3
aa(lp862
S'ThreeFile33.jpg'
p863
ag3
aa(lp864
S'ThreeFile34.jpg'
p865
ag3
aa(lp866
S'ThreeFile35.jpg'
p867
ag3
aa(lp868
S'ThreeFile36.jpg'
p869
ag3
aa(lp870
S'ThreeFile37.jpg'
p871
ag3
aa(lp872
S'ThreeFile38.jpg'
p873
ag3
aa(lp874
S'ThreeFile39.jpg'
p875
ag3
aa(lp876
S'ThreeFile40.jpg'
p877
ag3
aa(lp878
S'ThreeFile41.jpg'
p879
ag3
aa(lp880
S'ThreeFile42.jpg'
p881
ag3
aa(lp882
S'ThreeFile43.jpg'
p883
ag3
aa(lp884
S'ThreeFile44.jpg'
p885
ag3
aa(lp886
S'ThreeFile45.jpg'
p887
ag3
aa(lp888
S'ThreeFile46.jpg'
p889
ag3
aa(lp890
S'ThreeFile47.jpg'
p891
ag3
aa(lp892
S'ThreeFile48.jpg'
p893
ag3
aa(lp894
S'ThreeFile49.jpg'
p895
ag3
aa(lp896
S'ThreeFile50.jpg'
p897
ag3
aa(lp898
S'ThreeFile51.jpg'
p899
ag3
aa(lp900
S'ThreeFile52.jpg'
p901
ag3
aa(lp902
S'ThreeFile53.jpg'
p903
ag3
aa(lp904
S'ThreeFile54.jpg'
p905
ag3
aa(lp906
S'ThreeFile55.jpg'
p907
ag3
aa(lp908
S'TwoFile16.jpg'
p909
ag3
aa(lp910
S'TwoFile17.jpg'
p911
ag3
aa(lp912
S'TwoFile18.jpg'
p913
ag3
aa(lp914
S'TwoFile19.jpg'
p915
ag3
aa(lp916
S'TwoFile20.jpg'
p917
ag3
aa(lp918
S'TwoFile21.jpg'
p919
ag3
aa(lp920
S'TwoFile22.jpg'
p921
ag3
aa(lp922
S'TwoFile23.jpg'
p923
ag3
aa(lp924
S'TwoFile24.jpg'
p925
ag3
aa(lp926
S'TwoFile25.jpg'
p927
ag3
aa(lp928
S'TwoFile26.jpg'
p929
ag3
aa(lp930
S'TwoFile27.jpg'
p931
ag3
aa(lp932
S'TwoFile28.jpg'
p933
ag3
aa(lp934
S'TwoFile29.jpg'
p935
ag3
aa(lp936
S'TwoFile30.jpg'
p937
ag3
aa(lp938
S'TwoFile31.jpg'
p939
ag3
aa(lp940
S'TwoFile32.jpg'
p941
ag3
aa(lp942
S'TwoFile33.jpg'
p943
ag3
aa(lp944
S'TwoFile34.jpg'
p945
ag3
aa(lp946
S'TwoFile35.jpg'
p947
ag3
aa(lp948
S'TwoFile36.jpg'
p949
ag3
aa(lp950
S'TwoFile37.jpg'
p951
ag3
aa(lp952
S'TwoFile38.jpg'
p953
ag3
aa(lp954
S'TwoFile39.jpg'
p955
ag3
aa(lp956
S'frame22.jpg'
p957
aS'cool'
p958
aa(lp959
S'frame23.jpg'
p960
ag958
aa(lp961
S'frame24.jpg'
p962
ag958
aa(lp963
S'frame25.jpg'
p964
ag958
aa(lp965
S'frame26.jpg'
p966
ag958
aa(lp967
S'frame27.jpg'
p968
ag958
aa(lp969
S'frame28.jpg'
p970
ag958
aa(lp971
S'frame29.jpg'
p972
ag958
aa(lp973
S'frame30.jpg'
p974
ag958
aa(lp975
S'frame31.jpg'
p976
ag958
aa(lp977
S'frame32.jpg'
p978
ag958
aa(lp979
S'frame33.jpg'
p980
ag958
aa(lp981
S'frame34.jpg'
p982
ag958
aa(lp983
S'frame35.jpg'
p984
ag958
aa(lp985
S'frame36.jpg'
p986
ag958
aa(lp987
S'frame37.jpg'
p988
ag958
aa(lp989
S'frame38.jpg'
p990
ag958
aa(lp991
S'frame39.jpg'
p992
ag958
aa(lp993
S'N File1.jpg'
p994
ag958
aa(lp995
S'N File10.jpg'
p996
ag958
aa(lp997
S'N File11.jpg'
p998
ag958
aa(lp999
S'N File12.jpg'
p1000
ag958
aa(lp1001
S'N File13.jpg'
p1002
ag958
aa(lp1003
S'N File14.jpg'
p1004
ag958
aa(lp1005
S'N File15.jpg'
p1006
ag958
aa(lp1007
S'N File16.jpg'
p1008
ag958
aa(lp1009
S'N File17.jpg'
p1010
ag958
aa(lp1011
S'N File18.jpg'
p1012
ag958
aa(lp1013
S'N File19.jpg'
p1014
ag958
aa(lp1015
S'N File2.jpg'
p1016
ag958
aa(lp1017
S'N File20.jpg'
p1018
ag958
aa(lp1019
S'N File21.jpg'
p1020
ag958
aa(lp1021
S'N File22.jpg'
p1022
ag958
aa(lp1023
S'N File23.jpg'
p1024
ag958
aa(lp1025
S'N File3.jpg'
p1026
ag958
aa(lp1027
S'N File4.jpg'
p1028
ag958
aa(lp1029
S'N File5.jpg'
p1030
ag958
aa(lp1031
S'N File6.jpg'
p1032
ag958
aa(lp1033
S'N File7.jpg'
p1034
ag958
aa(lp1035
S'N File8.jpg'
p1036
ag958
aa(lp1037
S'N File9.jpg'
p1038
ag958
aa(lp1039
S'Ni File1.jpg'
p1040
ag958
aa(lp1041
S'Ni File10.jpg'
p1042
ag958
aa(lp1043
S'Ni File11.jpg'
p1044
ag958
aa(lp1045
S'Ni File12.jpg'
p1046
ag958
aa(lp1047
S'Ni File13.jpg'
p1048
ag958
aa(lp1049
S'Ni File14.jpg'
p1050
ag958
aa(lp1051
S'Ni File15.jpg'
p1052
ag958
aa(lp1053
S'Ni File16.jpg'
p1054
ag958
aa(lp1055
S'Ni File17.jpg'
p1056
ag958
aa(lp1057
S'Ni File18.jpg'
p1058
ag958
aa(lp1059
S'Ni File19.jpg'
p1060
ag958
aa(lp1061
S'Ni File2.jpg'
p1062
ag958
aa(lp1063
S'Ni File20.jpg'
p1064
ag958
aa(lp1065
S'Ni File3.jpg'
p1066
ag958
aa(lp1067
S'Ni File4.jpg'
p1068
ag958
aa(lp1069
S'Ni File5.jpg'
p1070
ag958
aa(lp1071
S'Ni File6.jpg'
p1072
ag958
aa(lp1073
S'Ni File7.jpg'
p1074
ag958
aa(lp1075
S'Ni File8.jpg'
p1076
ag958
aa(lp1077
S'Ni File9.jpg'
p1078
ag958
aa(lp1079
S'OneFile1.jpg'
p1080
ag958
aa(lp1081
S'OneFile10.jpg'
p1082
ag958
aa(lp1083
S'OneFile11.jpg'
p1084
ag958
aa(lp1085
S'OneFile12.jpg'
p1086
ag958
aa(lp1087
S'OneFile13.jpg'
p1088
ag958
aa(lp1089
S'OneFile14.jpg'
p1090
ag958
aa(lp1091
S'OneFile15.jpg'
p1092
ag958
aa(lp1093
S'OneFile16.jpg'
p1094
ag958
aa(lp1095
S'OneFile17.jpg'
p1096
ag958
aa(lp1097
S'OneFile18.jpg'
p1098
ag958
aa(lp1099
S'OneFile19.jpg'
p1100
ag958
aa(lp1101
S'OneFile2.jpg'
p1102
ag958
aa(lp1103
S'OneFile20.jpg'
p1104
ag958
aa(lp1105
S'OneFile21.jpg'
p1106
ag958
aa(lp1107
S'OneFile22.jpg'
p1108
ag958
aa(lp1109
S'OneFile23.jpg'
p1110
ag958
aa(lp1111
S'OneFile24.jpg'
p1112
ag958
aa(lp1113
S'OneFile25.jpg'
p1114
ag958
aa(lp1115
S'OneFile26.jpg'
p1116
ag958
aa(lp1117
S'OneFile27.jpg'
p1118
ag958
aa(lp1119
S'OneFile28.jpg'
p1120
ag958
aa(lp1121
S'OneFile29.jpg'
p1122
ag958
aa(lp1123
S'OneFile3.jpg'
p1124
ag958
aa(lp1125
S'OneFile30.jpg'
p1126
ag958
aa(lp1127
S'OneFile31.jpg'
p1128
ag958
aa(lp1129
S'OneFile32.jpg'
p1130
ag958
aa(lp1131
S'OneFile33.jpg'
p1132
ag958
aa(lp1133
S'OneFile34.jpg'
p1134
ag958
aa(lp1135
S'OneFile35.jpg'
p1136
ag958
aa(lp1137
S'OneFile36.jpg'
p1138
ag958
aa(lp1139
S'OneFile37.jpg'
p1140
ag958
aa(lp1141
S'OneFile38.jpg'
p1142
ag958
aa(lp1143
S'OneFile39.jpg'
p1144
ag958
aa(lp1145
S'OneFile4.jpg'
p1146
ag958
aa(lp1147
S'OneFile5.jpg'
p1148
ag958
aa(lp1149
S'OneFile6.jpg'
p1150
ag958
aa(lp1151
S'OneFile7.jpg'
p1152
ag958
aa(lp1153
S'OneFile8.jpg'
p1154
ag958
aa(lp1155
S'OneFile9.jpg'
p1156
ag958
aa(lp1157
S'P File1.jpg'
p1158
ag958
aa(lp1159
S'P File10.jpg'
p1160
ag958
aa(lp1161
S'P File11.jpg'
p1162
ag958
aa(lp1163
S'P File12.jpg'
p1164
ag958
aa(lp1165
S'P File13.jpg'
p1166
ag958
aa(lp1167
S'P File14.jpg'
p1168
ag958
aa(lp1169
S'P File15.jpg'
p1170
ag958
aa(lp1171
S'P File16.jpg'
p1172
ag958
aa(lp1173
S'P File17.jpg'
p1174
ag958
aa(lp1175
S'P File18.jpg'
p1176
ag958
aa(lp1177
S'P File19.jpg'
p1178
ag958
aa(lp1179
S'P File2.jpg'
p1180
ag958
aa(lp1181
S'P File20.jpg'
p1182
ag958
aa(lp1183
S'P File21.jpg'
p1184
ag958
aa(lp1185
S'P File22.jpg'
p1186
ag958
aa(lp1187
S'P File23.jpg'
p1188
ag958
aa(lp1189
S'P File24.jpg'
p1190
ag958
aa(lp1191
S'P File25.jpg'
p1192
ag958
aa(lp1193
S'P File26.jpg'
p1194
ag958
aa(lp1195
S'P File27.jpg'
p1196
ag958
aa(lp1197
S'P File28.jpg'
p1198
ag958
aa(lp1199
S'P File3.jpg'
p1200
ag958
aa(lp1201
S'P File4.jpg'
p1202
ag958
aa(lp1203
S'P File5.jpg'
p1204
ag958
aa(lp1205
S'P File6.jpg'
p1206
ag958
aa(lp1207
S'P File7.jpg'
p1208
ag958
aa(lp1209
S'P File8.jpg'
p1210
ag958
aa(lp1211
S'P File9.jpg'
p1212
ag958
aa(lp1213
S'PavOne0.jpg'
p1214
ag958
aa(lp1215
S'PavOne1.jpg'
p1216
ag958
aa(lp1217
S'PavOne10.jpg'
p1218
ag958
aa(lp1219
S'PavOne11.jpg'
p1220
ag958
aa(lp1221
S'PavOne12.jpg'
p1222
ag958
aa(lp1223
S'PavOne13.jpg'
p1224
ag958
aa(lp1225
S'PavOne14.jpg'
p1226
ag958
aa(lp1227
S'PavOne15.jpg'
p1228
ag958
aa(lp1229
S'PavOne16.jpg'
p1230
ag958
aa(lp1231
S'PavOne17.jpg'
p1232
ag958
aa(lp1233
S'PavOne18.jpg'
p1234
ag958
aa(lp1235
S'PavOne2.jpg'
p1236
ag958
aa(lp1237
S'PavOne3.jpg'
p1238
ag958
aa(lp1239
S'PavOne4.jpg'
p1240
ag958
aa(lp1241
S'PavOne5.jpg'
p1242
ag958
aa(lp1243
S'PavOne6.jpg'
p1244
ag958
aa(lp1245
S'PavOne7.jpg'
p1246
ag958
aa(lp1247
S'PavOne8.jpg'
p1248
ag958
aa(lp1249
S'PavOne9.jpg'
p1250
ag958
aa(lp1251
S'PavThree0.jpg'
p1252
ag958
aa(lp1253
S'PavThree1.jpg'
p1254
ag958
aa(lp1255
S'PavThree10.jpg'
p1256
ag958
aa(lp1257
S'PavThree11.jpg'
p1258
ag958
aa(lp1259
S'PavThree12.jpg'
p1260
ag958
aa(lp1261
S'PavThree13.jpg'
p1262
ag958
aa(lp1263
S'PavThree14.jpg'
p1264
ag958
aa(lp1265
S'PavThree15.jpg'
p1266
ag958
aa(lp1267
S'PavThree16.jpg'
p1268
ag958
aa(lp1269
S'PavThree17.jpg'
p1270
ag958
aa(lp1271
S'PavThree18.jpg'
p1272
ag958
aa(lp1273
S'PavThree19.jpg'
p1274
ag958
aa(lp1275
S'PavThree2.jpg'
p1276
ag958
aa(lp1277
S'PavThree20.jpg'
p1278
ag958
aa(lp1279
S'PavThree21.jpg'
p1280
ag958
aa(lp1281
S'PavThree22.jpg'
p1282
ag958
aa(lp1283
S'PavThree23.jpg'
p1284
ag958
aa(lp1285
S'PavThree24.jpg'
p1286
ag958
aa(lp1287
S'PavThree25.jpg'
p1288
ag958
aa(lp1289
S'PavThree3.jpg'
p1290
ag958
aa(lp1291
S'PavThree4.jpg'
p1292
ag958
aa(lp1293
S'PavThree5.jpg'
p1294
ag958
aa(lp1295
S'PavThree6.jpg'
p1296
ag958
aa(lp1297
S'PavThree7.jpg'
p1298
ag958
aa(lp1299
S'PavThree8.jpg'
p1300
ag958
aa(lp1301
S'PavThree9.jpg'
p1302
ag958
aa(lp1303
S'PavTwo0.jpg'
p1304
ag958
aa(lp1305
S'PavTwo1.jpg'
p1306
ag958
aa(lp1307
S'PavTwo10.jpg'
p1308
ag958
aa(lp1309
S'PavTwo11.jpg'
p1310
ag958
aa(lp1311
S'PavTwo12.jpg'
p1312
ag958
aa(lp1313
S'PavTwo13.jpg'
p1314
ag958
aa(lp1315
S'PavTwo14.jpg'
p1316
ag958
aa(lp1317
S'PavTwo15.jpg'
p1318
ag958
aa(lp1319
S'PavTwo16.jpg'
p1320
ag958
aa(lp1321
S'PavTwo17.jpg'
p1322
ag958
aa(lp1323
S'PavTwo18.jpg'
p1324
ag958
aa(lp1325
S'PavTwo19.jpg'
p1326
ag958
aa(lp1327
S'PavTwo2.jpg'
p1328
ag958
aa(lp1329
S'PavTwo20.jpg'
p1330
ag958
aa(lp1331
S'PavTwo21.jpg'
p1332
ag958
aa(lp1333
S'PavTwo22.jpg'
p1334
ag958
aa(lp1335
S'PavTwo23.jpg'
p1336
ag958
aa(lp1337
S'PavTwo24.jpg'
p1338
ag958
aa(lp1339
S'PavTwo25.jpg'
p1340
ag958
aa(lp1341
S'PavTwo26.jpg'
p1342
ag958
aa(lp1343
S'PavTwo27.jpg'
p1344
ag958
aa(lp1345
S'PavTwo28.jpg'
p1346
ag958
aa(lp1347
S'PavTwo3.jpg'
p1348
ag958
aa(lp1349
S'PavTwo4.jpg'
p1350
ag958
aa(lp1351
S'PavTwo5.jpg'
p1352
ag958
aa(lp1353
S'PavTwo6.jpg'
p1354
ag958
aa(lp1355
S'PavTwo7.jpg'
p1356
ag958
aa(lp1357
S'PavTwo8.jpg'
p1358
ag958
aa(lp1359
S'PavTwo9.jpg'
p1360
ag958
aa(lp1361
S'Payel1.jpg'
p1362
ag958
aa(lp1363
S'Payel10.jpg'
p1364
ag958
aa(lp1365
S'Payel11.jpg'
p1366
ag958
aa(lp1367
S'Payel12.jpg'
p1368
ag958
aa(lp1369
S'Payel13.jpg'
p1370
ag958
aa(lp1371
S'Payel14.jpg'
p1372
ag958
aa(lp1373
S'Payel15.jpg'
p1374
ag958
aa(lp1375
S'Payel16.jpg'
p1376
ag958
aa(lp1377
S'Payel17.jpg'
p1378
ag958
aa(lp1379
S'Payel18.jpg'
p1380
ag958
aa(lp1381
S'Payel19.jpg'
p1382
ag958
aa(lp1383
S'Payel2.jpg'
p1384
ag958
aa(lp1385
S'Payel20.jpg'
p1386
ag958
aa(lp1387
S'Payel22.jpg'
p1388
ag958
aa(lp1389
S'Payel23.jpg'
p1390
ag958
aa(lp1391
S'Payel24.jpg'
p1392
ag958
aa(lp1393
S'Payel25.jpg'
p1394
ag958
aa(lp1395
S'Payel26.jpg'
p1396
ag958
aa(lp1397
S'Payel27.jpg'
p1398
ag958
aa(lp1399
S'Payel28.jpg'
p1400
ag958
aa(lp1401
S'Payel29.jpg'
p1402
ag958
aa(lp1403
S'Payel3.jpg'
p1404
ag958
aa(lp1405
S'Payel30.jpg'
p1406
ag958
aa(lp1407
S'Payel31.jpg'
p1408
ag958
aa(lp1409
S'Payel32.jpg'
p1410
ag958
aa(lp1411
S'Payel33.jpg'
p1412
ag958
aa(lp1413
S'Payel34.jpg'
p1414
ag958
aa(lp1415
S'Payel35.jpg'
p1416
ag958
aa(lp1417
S'Payel36.jpg'
p1418
ag958
aa(lp1419
S'Payel37.jpg'
p1420
ag958
aa(lp1421
S'Payel38.jpg'
p1422
ag958
aa(lp1423
S'Payel39.jpg'
p1424
ag958
aa(lp1425
S'Payel4.jpg'
p1426
ag958
aa(lp1427
S'Payel40.jpg'
p1428
ag958
aa(lp1429
S'Payel41.jpg'
p1430
ag958
aa(lp1431
S'Payel42.jpg'
p1432
ag958
aa(lp1433
S'Payel43.jpg'
p1434
ag958
aa(lp1435
S'Payel44.jpg'
p1436
ag958
aa(lp1437
S'Payel45.jpg'
p1438
ag958
aa(lp1439
S'Payel46.jpg'
p1440
ag958
aa(lp1441
S'Payel47.jpg'
p1442
ag958
aa(lp1443
S'Payel48.jpg'
p1444
ag958
aa(lp1445
S'Payel49.jpg'
p1446
ag958
aa(lp1447
S'Payel5.jpg'
p1448
ag958
aa(lp1449
S'Payel50.jpg'
p1450
ag958
aa(lp1451
S'Payel51.jpg'
p1452
ag958
aa(lp1453
S'Payel52.jpg'
p1454
ag958
aa(lp1455
S'Payel53.jpg'
p1456
ag958
aa(lp1457
S'Payel54.jpg'
p1458
ag958
aa(lp1459
S'Payel55.jpg'
p1460
ag958
aa(lp1461
S'Payel56.jpg'
p1462
ag958
aa(lp1463
S'Payel57.jpg'
p1464
ag958
aa(lp1465
S'Payel58.jpg'
p1466
ag958
aa(lp1467
S'Payel59.jpg'
p1468
ag958
aa(lp1469
S'Payel6.jpg'
p1470
ag958
aa(lp1471
S'Payel60.jpg'
p1472
ag958
aa(lp1473
S'Payel61.jpg'
p1474
ag958
aa(lp1475
S'Payel62.jpg'
p1476
ag958
aa(lp1477
S'Payel63.jpg'
p1478
ag958
aa(lp1479
S'Payel64.jpg'
p1480
ag958
aa(lp1481
S'Payel65.jpg'
p1482
ag958
aa(lp1483
S'Payel66.jpg'
p1484
ag958
aa(lp1485
S'Payel67.jpg'
p1486
ag958
aa(lp1487
S'Payel68.jpg'
p1488
ag958
aa(lp1489
S'Payel69.jpg'
p1490
ag958
aa(lp1491
S'Payel7.jpg'
p1492
ag958
aa(lp1493
S'Payel70.jpg'
p1494
ag958
aa(lp1495
S'Payel71.jpg'
p1496
ag958
aa(lp1497
S'Payel72.jpg'
p1498
ag958
aa(lp1499
S'Payel73.jpg'
p1500
ag958
aa(lp1501
S'Payel74.jpg'
p1502
ag958
aa(lp1503
S'Payel75.jpg'
p1504
ag958
aa(lp1505
S'Payel76.jpg'
p1506
ag958
aa(lp1507
S'Payel77.jpg'
p1508
ag958
aa(lp1509
S'Payel78.jpg'
p1510
ag958
aa(lp1511
S'Payel79.jpg'
p1512
ag958
aa(lp1513
S'Payel8.jpg'
p1514
ag958
aa(lp1515
S'Payel80.jpg'
p1516
ag958
aa(lp1517
S'Payel81.jpg'
p1518
ag958
aa(lp1519
S'Payel82.jpg'
p1520
ag958
aa(lp1521
S'Payel83.jpg'
p1522
ag958
aa(lp1523
S'Payel84.jpg'
p1524
ag958
aa(lp1525
S'Payel85.jpg'
p1526
ag958
aa(lp1527
S'Payel86.jpg'
p1528
ag958
aa(lp1529
S'Payel87.jpg'
p1530
ag958
aa(lp1531
S'Payel88.jpg'
p1532
ag958
aa(lp1533
S'Payel89.jpg'
p1534
ag958
aa(lp1535
S'Payel9.jpg'
p1536
ag958
aa(lp1537
S'Payel90.jpg'
p1538
ag958
aa(lp1539
S'Payel91.jpg'
p1540
ag958
aa(lp1541
S'Payel92.jpg'
p1542
ag958
aa(lp1543
S'Payel93.jpg'
p1544
ag958
aa(lp1545
S'PTwo1.jpg'
p1546
ag958
aa(lp1547
S'PTwo10.jpg'
p1548
ag958
aa(lp1549
S'PTwo11.jpg'
p1550
ag958
aa(lp1551
S'PTwo12.jpg'
p1552
ag958
aa(lp1553
S'PTwo13.jpg'
p1554
ag958
aa(lp1555
S'PTwo14.jpg'
p1556
ag958
aa(lp1557
S'PTwo15.jpg'
p1558
ag958
aa(lp1559
S'PTwo16.jpg'
p1560
ag958
aa(lp1561
S'PTwo17.jpg'
p1562
ag958
aa(lp1563
S'PTwo18.jpg'
p1564
ag958
aa(lp1565
S'PTwo19.jpg'
p1566
ag958
aa(lp1567
S'PTwo2.jpg'
p1568
ag958
aa(lp1569
S'PTwo20.jpg'
p1570
ag958
aa(lp1571
S'PTwo21.jpg'
p1572
ag958
aa(lp1573
S'PTwo22.jpg'
p1574
ag958
aa(lp1575
S'PTwo23.jpg'
p1576
ag958
aa(lp1577
S'PTwo24.jpg'
p1578
ag958
aa(lp1579
S'PTwo25.jpg'
p1580
ag958
aa(lp1581
S'PTwo26.jpg'
p1582
ag958
aa(lp1583
S'PTwo27.jpg'
p1584
ag958
aa(lp1585
S'PTwo28.jpg'
p1586
ag958
aa(lp1587
S'PTwo29.jpg'
p1588
ag958
aa(lp1589
S'PTwo3.jpg'
p1590
ag958
aa(lp1591
S'PTwo30.jpg'
p1592
ag958
aa(lp1593
S'PTwo31.jpg'
p1594
ag958
aa(lp1595
S'PTwo32.jpg'
p1596
ag958
aa(lp1597
S'PTwo33.jpg'
p1598
ag958
aa(lp1599
S'PTwo34.jpg'
p1600
ag958
aa(lp1601
S'PTwo35.jpg'
p1602
ag958
aa(lp1603
S'PTwo36.jpg'
p1604
ag958
aa(lp1605
S'PTwo37.jpg'
p1606
ag958
aa(lp1607
S'PTwo38.jpg'
p1608
ag958
aa(lp1609
S'PTwo39.jpg'
p1610
ag958
aa(lp1611
S'PTwo4.jpg'
p1612
ag958
aa(lp1613
S'PTwo40.jpg'
p1614
ag958
aa(lp1615
S'PTwo41.jpg'
p1616
ag958
aa(lp1617
S'PTwo42.jpg'
p1618
ag958
aa(lp1619
S'PTwo43.jpg'
p1620
ag958
aa(lp1621
S'PTwo44.jpg'
p1622
ag958
aa(lp1623
S'PTwo45.jpg'
p1624
ag958
aa(lp1625
S'PTwo46.jpg'
p1626
ag958
aa(lp1627
S'PTwo47.jpg'
p1628
ag958
aa(lp1629
S'PTwo48.jpg'
p1630
ag958
aa(lp1631
S'PTwo49.jpg'
p1632
ag958
aa(lp1633
S'PTwo5.jpg'
p1634
ag958
aa(lp1635
S'PTwo50.jpg'
p1636
ag958
aa(lp1637
S'PTwo51.jpg'
p1638
ag958
aa(lp1639
S'PTwo6.jpg'
p1640
ag958
aa(lp1641
S'PTwo7.jpg'
p1642
ag958
aa(lp1643
S'PTwo8.jpg'
p1644
ag958
aa(lp1645
S'PTwo9.jpg'
p1646
ag958
aa(lp1647
S'SSec1.jpg'
p1648
ag958
aa(lp1649
S'SSec10.jpg'
p1650
ag958
aa(lp1651
S'SSec11.jpg'
p1652
ag958
aa(lp1653
S'SSec12.jpg'
p1654
ag958
aa(lp1655
S'SSec13.jpg'
p1656
ag958
aa(lp1657
S'SSec14.jpg'
p1658
ag958
aa(lp1659
S'SSec15.jpg'
p1660
ag958
aa(lp1661
S'SSec16.jpg'
p1662
ag958
aa(lp1663
S'SSec17.jpg'
p1664
ag958
aa(lp1665
S'SSec18.jpg'
p1666
ag958
aa(lp1667
S'SSec19.jpg'
p1668
ag958
aa(lp1669
S'SSec2.jpg'
p1670
ag958
aa(lp1671
S'SSec20.jpg'
p1672
ag958
aa(lp1673
S'SSec21.jpg'
p1674
ag958
aa(lp1675
S'SSec22.jpg'
p1676
ag958
aa(lp1677
S'SSec23.jpg'
p1678
ag958
aa(lp1679
S'SSec24.jpg'
p1680
ag958
aa(lp1681
S'SSec25.jpg'
p1682
ag958
aa(lp1683
S'SSec26.jpg'
p1684
ag958
aa(lp1685
S'SSec27.jpg'
p1686
ag958
aa(lp1687
S'SSec28.jpg'
p1688
ag958
aa(lp1689
S'SSec29.jpg'
p1690
ag958
aa(lp1691
S'SSec3.jpg'
p1692
ag958
aa(lp1693
S'SSec30.jpg'
p1694
ag958
aa(lp1695
S'SSec31.jpg'
p1696
ag958
aa(lp1697
S'SSec32.jpg'
p1698
ag958
aa(lp1699
S'SSec33.jpg'
p1700
ag958
aa(lp1701
S'SSec34.jpg'
p1702
ag958
aa(lp1703
S'SSec35.jpg'
p1704
ag958
aa(lp1705
S'SSec36.jpg'
p1706
ag958
aa(lp1707
S'SSec37.jpg'
p1708
ag958
aa(lp1709
S'SSec38.jpg'
p1710
ag958
aa(lp1711
S'SSec39.jpg'
p1712
ag958
aa(lp1713
S'SSec4.jpg'
p1714
ag958
aa(lp1715
S'SSec40.jpg'
p1716
ag958
aa(lp1717
S'SSec41.jpg'
p1718
ag958
aa(lp1719
S'SSec42.jpg'
p1720
ag958
aa(lp1721
S'SSec43.jpg'
p1722
ag958
aa(lp1723
S'SSec44.jpg'
p1724
ag958
aa(lp1725
S'SSec45.jpg'
p1726
ag958
aa(lp1727
S'SSec46.jpg'
p1728
ag958
aa(lp1729
S'SSec47.jpg'
p1730
ag958
aa(lp1731
S'SSec48.jpg'
p1732
ag958
aa(lp1733
S'SSec49.jpg'
p1734
ag958
aa(lp1735
S'SSec5.jpg'
p1736
ag958
aa(lp1737
S'SSec50.jpg'
p1738
ag958
aa(lp1739
S'SSec51.jpg'
p1740
ag958
aa(lp1741
S'SSec52.jpg'
p1742
ag958
aa(lp1743
S'SSec53.jpg'
p1744
ag958
aa(lp1745
S'SSec54.jpg'
p1746
ag958
aa(lp1747
S'SSec55.jpg'
p1748
ag958
aa(lp1749
S'SSec56.jpg'
p1750
ag958
aa(lp1751
S'SSec57.jpg'
p1752
ag958
aa(lp1753
S'SSec6.jpg'
p1754
ag958
aa(lp1755
S'SSec7.jpg'
p1756
ag958
aa(lp1757
S'SSec8.jpg'
p1758
ag958
aa(lp1759
S'SSec9.jpg'
p1760
ag958
aa(lp1761
S'ThreeFile13.jpg'
p1762
ag958
aa(lp1763
S'ThreeFile14.jpg'
p1764
ag958
aa(lp1765
S'ThreeFile15.jpg'
p1766
ag958
aa(lp1767
S'ThreeFile16.jpg'
p1768
ag958
aa(lp1769
S'ThreeFile17.jpg'
p1770
ag958
aa(lp1771
S'ThreeFile18.jpg'
p1772
ag958
aa(lp1773
S'ThreeFile19.jpg'
p1774
ag958
aa(lp1775
S'ThreeFile20.jpg'
p1776
ag958
aa(lp1777
S'ThreeFile21.jpg'
p1778
ag958
aa(lp1779
S'ThreeFile22.jpg'
p1780
ag958
aa(lp1781
S'ThreeFile23.jpg'
p1782
ag958
aa(lp1783
S'ThreeFile24.jpg'
p1784
ag958
aa(lp1785
S'ThreeFile25.jpg'
p1786
ag958
aa(lp1787
S'ThreeFile26.jpg'
p1788
ag958
aa(lp1789
S'ThreeFile27.jpg'
p1790
ag958
aa(lp1791
S'ThreeFile28.jpg'
p1792
ag958
aa(lp1793
S'ThreeFile29.jpg'
p1794
ag958
aa(lp1795
S'ThreeFile30.jpg'
p1796
ag958
aa(lp1797
S'ThreeFile31.jpg'
p1798
ag958
aa(lp1799
S'ThreeFile32.jpg'
p1800
ag958
aa(lp1801
S'ThreeFile33.jpg'
p1802
ag958
aa(lp1803
S'TwoFile11.jpg'
p1804
ag958
aa(lp1805
S'TwoFile12.jpg'
p1806
ag958
aa(lp1807
S'TwoFile13.jpg'
p1808
ag958
aa(lp1809
S'TwoFile14.jpg'
p1810
ag958
aa(lp1811
S'TwoFile15.jpg'
p1812
ag958
aa(lp1813
S'TwoFile16.jpg'
p1814
ag958
aa(lp1815
S'TwoFile17.jpg'
p1816
ag958
aa(lp1817
S'TwoFile18.jpg'
p1818
ag958
aa(lp1819
S'TwoFile19.jpg'
p1820
ag958
aa(lp1821
S'TwoFile20.jpg'
p1822
ag958
aa(lp1823
S'TwoFile21.jpg'
p1824
ag958
aa(lp1825
S'TwoFile22.jpg'
p1826
ag958
aa(lp1827
S'TwoFile23.jpg'
p1828
ag958
aa(lp1829
S'TwoFile24.jpg'
p1830
ag958
aa(lp1831
S'TwoFile25.jpg'
p1832
ag958
aa(lp1833
S'TwoFile26.jpg'
p1834
ag958
aa(lp1835
S'TwoFile27.jpg'
p1836
ag958
aa(lp1837
S'TwoFile28.jpg'
p1838
ag958
aa(lp1839
S'TwoFile29.jpg'
p1840
ag958
aa(lp1841
S'TwoFile30.jpg'
p1842
ag958
aa(lp1843
S'TwoFile31.jpg'
p1844
ag958
aa(lp1845
S'TwoFile32.jpg'
p1846
ag958
aa(lp1847
S'TwoFile33.jpg'
p1848
ag958
aa(lp1849
S'TwoFile34.jpg'
p1850
ag958
aa(lp1851
S'TwoFile35.jpg'
p1852
ag958
aa(lp1853
S'TwoFile36.jpg'
p1854
ag958
aa(lp1855
S'TwoFile37.jpg'
p1856
ag958
aa(lp1857
S'TwoFile38.jpg'
p1858
ag958
aa(lp1859
S'TwoFile39.jpg'
p1860
ag958
aa(lp1861
S'TwoFile40.jpg'
p1862
ag958
aa(lp1863
S'frame14.jpg'
p1864
aS'dont know'
p1865
aa(lp1866
S'frame15.jpg'
p1867
ag1865
aa(lp1868
S'frame16.jpg'
p1869
ag1865
aa(lp1870
S'frame17.jpg'
p1871
ag1865
aa(lp1872
S'frame18.jpg'
p1873
ag1865
aa(lp1874
S'frame19.jpg'
p1875
ag1865
aa(lp1876
S'frame20.jpg'
p1877
ag1865
aa(lp1878
S'frame21.jpg'
p1879
ag1865
aa(lp1880
S'frame22.jpg'
p1881
ag1865
aa(lp1882
S'frame23.jpg'
p1883
ag1865
aa(lp1884
S'frame24.jpg'
p1885
ag1865
aa(lp1886
S'frame25.jpg'
p1887
ag1865
aa(lp1888
S'frame26.jpg'
p1889
ag1865
aa(lp1890
S'frame27.jpg'
p1891
ag1865
aa(lp1892
S'frame28.jpg'
p1893
ag1865
aa(lp1894
S'frame29.jpg'
p1895
ag1865
aa(lp1896
S'frame30.jpg'
p1897
ag1865
aa(lp1898
S'frame31.jpg'
p1899
ag1865
aa(lp1900
S'frame32.jpg'
p1901
ag1865
aa(lp1902
S'frame33.jpg'
p1903
ag1865
aa(lp1904
S'frame34.jpg'
p1905
ag1865
aa(lp1906
S'frame35.jpg'
p1907
ag1865
aa(lp1908
S'N File1.jpg'
p1909
ag1865
aa(lp1910
S'N File10.jpg'
p1911
ag1865
aa(lp1912
S'N File11.jpg'
p1913
ag1865
aa(lp1914
S'N File12.jpg'
p1915
ag1865
aa(lp1916
S'N File13.jpg'
p1917
ag1865
aa(lp1918
S'N File14.jpg'
p1919
ag1865
aa(lp1920
S'N File15.jpg'
p1921
ag1865
aa(lp1922
S'N File2.jpg'
p1923
ag1865
aa(lp1924
S'N File3.jpg'
p1925
ag1865
aa(lp1926
S'N File4.jpg'
p1927
ag1865
aa(lp1928
S'N File5.jpg'
p1929
ag1865
aa(lp1930
S'N File6.jpg'
p1931
ag1865
aa(lp1932
S'N File7.jpg'
p1933
ag1865
aa(lp1934
S'N File8.jpg'
p1935
ag1865
aa(lp1936
S'N File9.jpg'
p1937
ag1865
aa(lp1938
S'Ni File1.jpg'
p1939
ag1865
aa(lp1940
S'Ni File10.jpg'
p1941
ag1865
aa(lp1942
S'Ni File11.jpg'
p1943
ag1865
aa(lp1944
S'Ni File12.jpg'
p1945
ag1865
aa(lp1946
S'Ni File13.jpg'
p1947
ag1865
aa(lp1948
S'Ni File14.jpg'
p1949
ag1865
aa(lp1950
S'Ni File15.jpg'
p1951
ag1865
aa(lp1952
S'Ni File16.jpg'
p1953
ag1865
aa(lp1954
S'Ni File17.jpg'
p1955
ag1865
aa(lp1956
S'Ni File18.jpg'
p1957
ag1865
aa(lp1958
S'Ni File2.jpg'
p1959
ag1865
aa(lp1960
S'Ni File3.jpg'
p1961
ag1865
aa(lp1962
S'Ni File4.jpg'
p1963
ag1865
aa(lp1964
S'Ni File5.jpg'
p1965
ag1865
aa(lp1966
S'Ni File6.jpg'
p1967
ag1865
aa(lp1968
S'Ni File7.jpg'
p1969
ag1865
aa(lp1970
S'Ni File8.jpg'
p1971
ag1865
aa(lp1972
S'Ni File9.jpg'
p1973
ag1865
aa(lp1974
S'OneFile15.jpg'
p1975
ag1865
aa(lp1976
S'OneFile16.jpg'
p1977
ag1865
aa(lp1978
S'OneFile17.jpg'
p1979
ag1865
aa(lp1980
S'OneFile18.jpg'
p1981
ag1865
aa(lp1982
S'OneFile19.jpg'
p1983
ag1865
aa(lp1984
S'OneFile20.jpg'
p1985
ag1865
aa(lp1986
S'OneFile21.jpg'
p1987
ag1865
aa(lp1988
S'OneFile22.jpg'
p1989
ag1865
aa(lp1990
S'OneFile23.jpg'
p1991
ag1865
aa(lp1992
S'OneFile24.jpg'
p1993
ag1865
aa(lp1994
S'OneFile25.jpg'
p1995
ag1865
aa(lp1996
S'OneFile26.jpg'
p1997
ag1865
aa(lp1998
S'OneFile27.jpg'
p1999
ag1865
aa(lp2000
S'OneFile28.jpg'
p2001
ag1865
aa(lp2002
S'OneFile29.jpg'
p2003
ag1865
aa(lp2004
S'OneFile30.jpg'
p2005
ag1865
aa(lp2006
S'OneFile31.jpg'
p2007
ag1865
aa(lp2008
S'OneFile32.jpg'
p2009
ag1865
aa(lp2010
S'OneFile33.jpg'
p2011
ag1865
aa(lp2012
S'OneFile34.jpg'
p2013
ag1865
aa(lp2014
S'OneFile35.jpg'
p2015
ag1865
aa(lp2016
S'OneFile36.jpg'
p2017
ag1865
aa(lp2018
S'OneFile37.jpg'
p2019
ag1865
aa(lp2020
S'OneFile38.jpg'
p2021
ag1865
aa(lp2022
S'OneFile39.jpg'
p2023
ag1865
aa(lp2024
S'OneFile40.jpg'
p2025
ag1865
aa(lp2026
S'OneFile41.jpg'
p2027
ag1865
aa(lp2028
S'OneFile42.jpg'
p2029
ag1865
aa(lp2030
S'OneFile43.jpg'
p2031
ag1865
aa(lp2032
S'OneFile44.jpg'
p2033
ag1865
aa(lp2034
S'OneFile45.jpg'
p2035
ag1865
aa(lp2036
S'OneFile46.jpg'
p2037
ag1865
aa(lp2038
S'OneFile47.jpg'
p2039
ag1865
aa(lp2040
S'OneFile48.jpg'
p2041
ag1865
aa(lp2042
S'OneFile49.jpg'
p2043
ag1865
aa(lp2044
S'P File1.jpg'
p2045
ag1865
aa(lp2046
S'P File10.jpg'
p2047
ag1865
aa(lp2048
S'P File11.jpg'
p2049
ag1865
aa(lp2050
S'P File12.jpg'
p2051
ag1865
aa(lp2052
S'P File13.jpg'
p2053
ag1865
aa(lp2054
S'P File14.jpg'
p2055
ag1865
aa(lp2056
S'P File15.jpg'
p2057
ag1865
aa(lp2058
S'P File16.jpg'
p2059
ag1865
aa(lp2060
S'P File17.jpg'
p2061
ag1865
aa(lp2062
S'P File18.jpg'
p2063
ag1865
aa(lp2064
S'P File2.jpg'
p2065
ag1865
aa(lp2066
S'P File3.jpg'
p2067
ag1865
aa(lp2068
S'P File4.jpg'
p2069
ag1865
aa(lp2070
S'P File5.jpg'
p2071
ag1865
aa(lp2072
S'P File6.jpg'
p2073
ag1865
aa(lp2074
S'P File7.jpg'
p2075
ag1865
aa(lp2076
S'P File8.jpg'
p2077
ag1865
aa(lp2078
S'P File9.jpg'
p2079
ag1865
aa(lp2080
S'PavOne0.jpg'
p2081
ag1865
aa(lp2082
S'PavOne1.jpg'
p2083
ag1865
aa(lp2084
S'PavOne10.jpg'
p2085
ag1865
aa(lp2086
S'PavOne11.jpg'
p2087
ag1865
aa(lp2088
S'PavOne12.jpg'
p2089
ag1865
aa(lp2090
S'PavOne13.jpg'
p2091
ag1865
aa(lp2092
S'PavOne14.jpg'
p2093
ag1865
aa(lp2094
S'PavOne15.jpg'
p2095
ag1865
aa(lp2096
S'PavOne16.jpg'
p2097
ag1865
aa(lp2098
S'PavOne17.jpg'
p2099
ag1865
aa(lp2100
S'PavOne18.jpg'
p2101
ag1865
aa(lp2102
S'PavOne19.jpg'
p2103
ag1865
aa(lp2104
S'PavOne2.jpg'
p2105
ag1865
aa(lp2106
S'PavOne3.jpg'
p2107
ag1865
aa(lp2108
S'PavOne4.jpg'
p2109
ag1865
aa(lp2110
S'PavOne5.jpg'
p2111
ag1865
aa(lp2112
S'PavOne6.jpg'
p2113
ag1865
aa(lp2114
S'PavOne7.jpg'
p2115
ag1865
aa(lp2116
S'PavOne8.jpg'
p2117
ag1865
aa(lp2118
S'PavOne9.jpg'
p2119
ag1865
aa(lp2120
S'PavThree0.jpg'
p2121
ag1865
aa(lp2122
S'PavThree1.jpg'
p2123
ag1865
aa(lp2124
S'PavThree10.jpg'
p2125
ag1865
aa(lp2126
S'PavThree11.jpg'
p2127
ag1865
aa(lp2128
S'PavThree12.jpg'
p2129
ag1865
aa(lp2130
S'PavThree13.jpg'
p2131
ag1865
aa(lp2132
S'PavThree14.jpg'
p2133
ag1865
aa(lp2134
S'PavThree15.jpg'
p2135
ag1865
aa(lp2136
S'PavThree16.jpg'
p2137
ag1865
aa(lp2138
S'PavThree17.jpg'
p2139
ag1865
aa(lp2140
S'PavThree18.jpg'
p2141
ag1865
aa(lp2142
S'PavThree19.jpg'
p2143
ag1865
aa(lp2144
S'PavThree2.jpg'
p2145
ag1865
aa(lp2146
S'PavThree20.jpg'
p2147
ag1865
aa(lp2148
S'PavThree21.jpg'
p2149
ag1865
aa(lp2150
S'PavThree22.jpg'
p2151
ag1865
aa(lp2152
S'PavThree23.jpg'
p2153
ag1865
aa(lp2154
S'PavThree24.jpg'
p2155
ag1865
aa(lp2156
S'PavThree25.jpg'
p2157
ag1865
aa(lp2158
S'PavThree26.jpg'
p2159
ag1865
aa(lp2160
S'PavThree27.jpg'
p2161
ag1865
aa(lp2162
S'PavThree28.jpg'
p2163
ag1865
aa(lp2164
S'PavThree29.jpg'
p2165
ag1865
aa(lp2166
S'PavThree3.jpg'
p2167
ag1865
aa(lp2168
S'PavThree30.jpg'
p2169
ag1865
aa(lp2170
S'PavThree31.jpg'
p2171
ag1865
aa(lp2172
S'PavThree32.jpg'
p2173
ag1865
aa(lp2174
S'PavThree4.jpg'
p2175
ag1865
aa(lp2176
S'PavThree5.jpg'
p2177
ag1865
aa(lp2178
S'PavThree6.jpg'
p2179
ag1865
aa(lp2180
S'PavThree7.jpg'
p2181
ag1865
aa(lp2182
S'PavThree8.jpg'
p2183
ag1865
aa(lp2184
S'PavThree9.jpg'
p2185
ag1865
aa(lp2186
S'PavTwo0.jpg'
p2187
ag1865
aa(lp2188
S'PavTwo1.jpg'
p2189
ag1865
aa(lp2190
S'PavTwo10.jpg'
p2191
ag1865
aa(lp2192
S'PavTwo11.jpg'
p2193
ag1865
aa(lp2194
S'PavTwo12.jpg'
p2195
ag1865
aa(lp2196
S'PavTwo13.jpg'
p2197
ag1865
aa(lp2198
S'PavTwo14.jpg'
p2199
ag1865
aa(lp2200
S'PavTwo15.jpg'
p2201
ag1865
aa(lp2202
S'PavTwo16.jpg'
p2203
ag1865
aa(lp2204
S'PavTwo17.jpg'
p2205
ag1865
aa(lp2206
S'PavTwo18.jpg'
p2207
ag1865
aa(lp2208
S'PavTwo19.jpg'
p2209
ag1865
aa(lp2210
S'PavTwo2.jpg'
p2211
ag1865
aa(lp2212
S'PavTwo20.jpg'
p2213
ag1865
aa(lp2214
S'PavTwo21.jpg'
p2215
ag1865
aa(lp2216
S'PavTwo22.jpg'
p2217
ag1865
aa(lp2218
S'PavTwo23.jpg'
p2219
ag1865
aa(lp2220
S'PavTwo24.jpg'
p2221
ag1865
aa(lp2222
S'PavTwo25.jpg'
p2223
ag1865
aa(lp2224
S'PavTwo26.jpg'
p2225
ag1865
aa(lp2226
S'PavTwo27.jpg'
p2227
ag1865
aa(lp2228
S'PavTwo28.jpg'
p2229
ag1865
aa(lp2230
S'PavTwo29.jpg'
p2231
ag1865
aa(lp2232
S'PavTwo3.jpg'
p2233
ag1865
aa(lp2234
S'PavTwo4.jpg'
p2235
ag1865
aa(lp2236
S'PavTwo5.jpg'
p2237
ag1865
aa(lp2238
S'PavTwo6.jpg'
p2239
ag1865
aa(lp2240
S'PavTwo7.jpg'
p2241
ag1865
aa(lp2242
S'PavTwo8.jpg'
p2243
ag1865
aa(lp2244
S'PavTwo9.jpg'
p2245
ag1865
aa(lp2246
S'Payel1.jpg'
p2247
ag1865
aa(lp2248
S'Payel10.jpg'
p2249
ag1865
aa(lp2250
S'Payel100.jpg'
p2251
ag1865
aa(lp2252
S'Payel101.jpg'
p2253
ag1865
aa(lp2254
S'Payel102.jpg'
p2255
ag1865
aa(lp2256
S'Payel103.jpg'
p2257
ag1865
aa(lp2258
S'Payel104.jpg'
p2259
ag1865
aa(lp2260
S'Payel105.jpg'
p2261
ag1865
aa(lp2262
S'Payel106.jpg'
p2263
ag1865
aa(lp2264
S'Payel107.jpg'
p2265
ag1865
aa(lp2266
S'Payel108.jpg'
p2267
ag1865
aa(lp2268
S'Payel109.jpg'
p2269
ag1865
aa(lp2270
S'Payel11.jpg'
p2271
ag1865
aa(lp2272
S'Payel110.jpg'
p2273
ag1865
aa(lp2274
S'Payel111.jpg'
p2275
ag1865
aa(lp2276
S'Payel12.jpg'
p2277
ag1865
aa(lp2278
S'Payel13.jpg'
p2279
ag1865
aa(lp2280
S'Payel14.jpg'
p2281
ag1865
aa(lp2282
S'Payel15.jpg'
p2283
ag1865
aa(lp2284
S'Payel16.jpg'
p2285
ag1865
aa(lp2286
S'Payel17.jpg'
p2287
ag1865
aa(lp2288
S'Payel18.jpg'
p2289
ag1865
aa(lp2290
S'Payel19.jpg'
p2291
ag1865
aa(lp2292
S'Payel2.jpg'
p2293
ag1865
aa(lp2294
S'Payel20.jpg'
p2295
ag1865
aa(lp2296
S'Payel21.jpg'
p2297
ag1865
aa(lp2298
S'Payel22.jpg'
p2299
ag1865
aa(lp2300
S'Payel23.jpg'
p2301
ag1865
aa(lp2302
S'Payel24.jpg'
p2303
ag1865
aa(lp2304
S'Payel25.jpg'
p2305
ag1865
aa(lp2306
S'Payel26.jpg'
p2307
ag1865
aa(lp2308
S'Payel27.jpg'
p2309
ag1865
aa(lp2310
S'Payel28.jpg'
p2311
ag1865
aa(lp2312
S'Payel29.jpg'
p2313
ag1865
aa(lp2314
S'Payel3.jpg'
p2315
ag1865
aa(lp2316
S'Payel30.jpg'
p2317
ag1865
aa(lp2318
S'Payel31.jpg'
p2319
ag1865
aa(lp2320
S'Payel32.jpg'
p2321
ag1865
aa(lp2322
S'Payel33.jpg'
p2323
ag1865
aa(lp2324
S'Payel34.jpg'
p2325
ag1865
aa(lp2326
S'Payel35.jpg'
p2327
ag1865
aa(lp2328
S'Payel36.jpg'
p2329
ag1865
aa(lp2330
S'Payel37.jpg'
p2331
ag1865
aa(lp2332
S'Payel38.jpg'
p2333
ag1865
aa(lp2334
S'Payel39.jpg'
p2335
ag1865
aa(lp2336
S'Payel4.jpg'
p2337
ag1865
aa(lp2338
S'Payel40.jpg'
p2339
ag1865
aa(lp2340
S'Payel41.jpg'
p2341
ag1865
aa(lp2342
S'Payel42.jpg'
p2343
ag1865
aa(lp2344
S'Payel43.jpg'
p2345
ag1865
aa(lp2346
S'Payel44.jpg'
p2347
ag1865
aa(lp2348
S'Payel45.jpg'
p2349
ag1865
aa(lp2350
S'Payel46.jpg'
p2351
ag1865
aa(lp2352
S'Payel47.jpg'
p2353
ag1865
aa(lp2354
S'Payel48.jpg'
p2355
ag1865
aa(lp2356
S'Payel49.jpg'
p2357
ag1865
aa(lp2358
S'Payel5.jpg'
p2359
ag1865
aa(lp2360
S'Payel50.jpg'
p2361
ag1865
aa(lp2362
S'Payel51.jpg'
p2363
ag1865
aa(lp2364
S'Payel52.jpg'
p2365
ag1865
aa(lp2366
S'Payel53.jpg'
p2367
ag1865
aa(lp2368
S'Payel54.jpg'
p2369
ag1865
aa(lp2370
S'Payel55.jpg'
p2371
ag1865
aa(lp2372
S'Payel56.jpg'
p2373
ag1865
aa(lp2374
S'Payel57.jpg'
p2375
ag1865
aa(lp2376
S'Payel58.jpg'
p2377
ag1865
aa(lp2378
S'Payel59.jpg'
p2379
ag1865
aa(lp2380
S'Payel6.jpg'
p2381
ag1865
aa(lp2382
S'Payel60.jpg'
p2383
ag1865
aa(lp2384
S'Payel61.jpg'
p2385
ag1865
aa(lp2386
S'Payel62.jpg'
p2387
ag1865
aa(lp2388
S'Payel63.jpg'
p2389
ag1865
aa(lp2390
S'Payel64.jpg'
p2391
ag1865
aa(lp2392
S'Payel65.jpg'
p2393
ag1865
aa(lp2394
S'Payel66.jpg'
p2395
ag1865
aa(lp2396
S'Payel67.jpg'
p2397
ag1865
aa(lp2398
S'Payel68.jpg'
p2399
ag1865
aa(lp2400
S'Payel69.jpg'
p2401
ag1865
aa(lp2402
S'Payel7.jpg'
p2403
ag1865
aa(lp2404
S'Payel70.jpg'
p2405
ag1865
aa(lp2406
S'Payel71.jpg'
p2407
ag1865
aa(lp2408
S'Payel72.jpg'
p2409
ag1865
aa(lp2410
S'Payel73.jpg'
p2411
ag1865
aa(lp2412
S'Payel74.jpg'
p2413
ag1865
aa(lp2414
S'Payel75.jpg'
p2415
ag1865
aa(lp2416
S'Payel76.jpg'
p2417
ag1865
aa(lp2418
S'Payel77.jpg'
p2419
ag1865
aa(lp2420
S'Payel78.jpg'
p2421
ag1865
aa(lp2422
S'Payel79.jpg'
p2423
ag1865
aa(lp2424
S'Payel8.jpg'
p2425
ag1865
aa(lp2426
S'Payel80.jpg'
p2427
ag1865
aa(lp2428
S'Payel81.jpg'
p2429
ag1865
aa(lp2430
S'Payel82.jpg'
p2431
ag1865
aa(lp2432
S'Payel83.jpg'
p2433
ag1865
aa(lp2434
S'Payel84.jpg'
p2435
ag1865
aa(lp2436
S'Payel85.jpg'
p2437
ag1865
aa(lp2438
S'Payel86.jpg'
p2439
ag1865
aa(lp2440
S'Payel87.jpg'
p2441
ag1865
aa(lp2442
S'Payel88.jpg'
p2443
ag1865
aa(lp2444
S'Payel89.jpg'
p2445
ag1865
aa(lp2446
S'Payel9.jpg'
p2447
ag1865
aa(lp2448
S'Payel90.jpg'
p2449
ag1865
aa(lp2450
S'Payel91.jpg'
p2451
ag1865
aa(lp2452
S'Payel92.jpg'
p2453
ag1865
aa(lp2454
S'Payel93.jpg'
p2455
ag1865
aa(lp2456
S'Payel94.jpg'
p2457
ag1865
aa(lp2458
S'Payel95.jpg'
p2459
ag1865
aa(lp2460
S'Payel96.jpg'
p2461
ag1865
aa(lp2462
S'Payel97.jpg'
p2463
ag1865
aa(lp2464
S'Payel98.jpg'
p2465
ag1865
aa(lp2466
S'Payel99.jpg'
p2467
ag1865
aa(lp2468
S'PTwo1.jpg'
p2469
ag1865
aa(lp2470
S'PTwo10.jpg'
p2471
ag1865
aa(lp2472
S'PTwo11.jpg'
p2473
ag1865
aa(lp2474
S'PTwo12.jpg'
p2475
ag1865
aa(lp2476
S'PTwo13.jpg'
p2477
ag1865
aa(lp2478
S'PTwo14.jpg'
p2479
ag1865
aa(lp2480
S'PTwo15.jpg'
p2481
ag1865
aa(lp2482
S'PTwo16.jpg'
p2483
ag1865
aa(lp2484
S'PTwo17.jpg'
p2485
ag1865
aa(lp2486
S'PTwo18.jpg'
p2487
ag1865
aa(lp2488
S'PTwo19.jpg'
p2489
ag1865
aa(lp2490
S'PTwo2.jpg'
p2491
ag1865
aa(lp2492
S'PTwo20.jpg'
p2493
ag1865
aa(lp2494
S'PTwo21.jpg'
p2495
ag1865
aa(lp2496
S'PTwo22.jpg'
p2497
ag1865
aa(lp2498
S'PTwo23.jpg'
p2499
ag1865
aa(lp2500
S'PTwo24.jpg'
p2501
ag1865
aa(lp2502
S'PTwo25.jpg'
p2503
ag1865
aa(lp2504
S'PTwo26.jpg'
p2505
ag1865
aa(lp2506
S'PTwo27.jpg'
p2507
ag1865
aa(lp2508
S'PTwo28.jpg'
p2509
ag1865
aa(lp2510
S'PTwo29.jpg'
p2511
ag1865
aa(lp2512
S'PTwo3.jpg'
p2513
ag1865
aa(lp2514
S'PTwo30.jpg'
p2515
ag1865
aa(lp2516
S'PTwo31.jpg'
p2517
ag1865
aa(lp2518
S'PTwo32.jpg'
p2519
ag1865
aa(lp2520
S'PTwo33.jpg'
p2521
ag1865
aa(lp2522
S'PTwo34.jpg'
p2523
ag1865
aa(lp2524
S'PTwo35.jpg'
p2525
ag1865
aa(lp2526
S'PTwo36.jpg'
p2527
ag1865
aa(lp2528
S'PTwo37.jpg'
p2529
ag1865
aa(lp2530
S'PTwo38.jpg'
p2531
ag1865
aa(lp2532
S'PTwo39.jpg'
p2533
ag1865
aa(lp2534
S'PTwo4.jpg'
p2535
ag1865
aa(lp2536
S'PTwo40.jpg'
p2537
ag1865
aa(lp2538
S'PTwo41.jpg'
p2539
ag1865
aa(lp2540
S'PTwo42.jpg'
p2541
ag1865
aa(lp2542
S'PTwo43.jpg'
p2543
ag1865
aa(lp2544
S'PTwo44.jpg'
p2545
ag1865
aa(lp2546
S'PTwo45.jpg'
p2547
ag1865
aa(lp2548
S'PTwo46.jpg'
p2549
ag1865
aa(lp2550
S'PTwo47.jpg'
p2551
ag1865
aa(lp2552
S'PTwo48.jpg'
p2553
ag1865
aa(lp2554
S'PTwo49.jpg'
p2555
ag1865
aa(lp2556
S'PTwo5.jpg'
p2557
ag1865
aa(lp2558
S'PTwo50.jpg'
p2559
ag1865
aa(lp2560
S'PTwo51.jpg'
p2561
ag1865
aa(lp2562
S'PTwo52.jpg'
p2563
ag1865
aa(lp2564
S'PTwo53.jpg'
p2565
ag1865
aa(lp2566
S'PTwo54.jpg'
p2567
ag1865
aa(lp2568
S'PTwo55.jpg'
p2569
ag1865
aa(lp2570
S'PTwo56.jpg'
p2571
ag1865
aa(lp2572
S'PTwo57.jpg'
p2573
ag1865
aa(lp2574
S'PTwo6.jpg'
p2575
ag1865
aa(lp2576
S'PTwo7.jpg'
p2577
ag1865
aa(lp2578
S'PTwo8.jpg'
p2579
ag1865
aa(lp2580
S'PTwo9.jpg'
p2581
ag1865
aa(lp2582
S'S File1.jpg'
p2583
ag1865
aa(lp2584
S'S File10.jpg'
p2585
ag1865
aa(lp2586
S'S File11.jpg'
p2587
ag1865
aa(lp2588
S'S File12.jpg'
p2589
ag1865
aa(lp2590
S'S File13.jpg'
p2591
ag1865
aa(lp2592
S'S File14.jpg'
p2593
ag1865
aa(lp2594
S'S File15.jpg'
p2595
ag1865
aa(lp2596
S'S File16.jpg'
p2597
ag1865
aa(lp2598
S'S File17.jpg'
p2599
ag1865
aa(lp2600
S'S File18.jpg'
p2601
ag1865
aa(lp2602
S'S File19.jpg'
p2603
ag1865
aa(lp2604
S'S File2.jpg'
p2605
ag1865
aa(lp2606
S'S File20.jpg'
p2607
ag1865
aa(lp2608
S'S File21.jpg'
p2609
ag1865
aa(lp2610
S'S File22.jpg'
p2611
ag1865
aa(lp2612
S'S File23.jpg'
p2613
ag1865
aa(lp2614
S'S File24.jpg'
p2615
ag1865
aa(lp2616
S'S File25.jpg'
p2617
ag1865
aa(lp2618
S'S File26.jpg'
p2619
ag1865
aa(lp2620
S'S File27.jpg'
p2621
ag1865
aa(lp2622
S'S File28.jpg'
p2623
ag1865
aa(lp2624
S'S File29.jpg'
p2625
ag1865
aa(lp2626
S'S File3.jpg'
p2627
ag1865
aa(lp2628
S'S File30.jpg'
p2629
ag1865
aa(lp2630
S'S File31.jpg'
p2631
ag1865
aa(lp2632
S'S File32.jpg'
p2633
ag1865
aa(lp2634
S'S File33.jpg'
p2635
ag1865
aa(lp2636
S'S File34.jpg'
p2637
ag1865
aa(lp2638
S'S File35.jpg'
p2639
ag1865
aa(lp2640
S'S File36.jpg'
p2641
ag1865
aa(lp2642
S'S File4.jpg'
p2643
ag1865
aa(lp2644
S'S File5.jpg'
p2645
ag1865
aa(lp2646
S'S File6.jpg'
p2647
ag1865
aa(lp2648
S'S File7.jpg'
p2649
ag1865
aa(lp2650
S'S File8.jpg'
p2651
ag1865
aa(lp2652
S'S File9.jpg'
p2653
ag1865
aa(lp2654
S'SSec1.jpg'
p2655
ag1865
aa(lp2656
S'SSec10.jpg'
p2657
ag1865
aa(lp2658
S'SSec11.jpg'
p2659
ag1865
aa(lp2660
S'SSec12.jpg'
p2661
ag1865
aa(lp2662
S'SSec13.jpg'
p2663
ag1865
aa(lp2664
S'SSec14.jpg'
p2665
ag1865
aa(lp2666
S'SSec15.jpg'
p2667
ag1865
aa(lp2668
S'SSec16.jpg'
p2669
ag1865
aa(lp2670
S'SSec17.jpg'
p2671
ag1865
aa(lp2672
S'SSec18.jpg'
p2673
ag1865
aa(lp2674
S'SSec19.jpg'
p2675
ag1865
aa(lp2676
S'SSec2.jpg'
p2677
ag1865
aa(lp2678
S'SSec20.jpg'
p2679
ag1865
aa(lp2680
S'SSec21.jpg'
p2681
ag1865
aa(lp2682
S'SSec22.jpg'
p2683
ag1865
aa(lp2684
S'SSec23.jpg'
p2685
ag1865
aa(lp2686
S'SSec24.jpg'
p2687
ag1865
aa(lp2688
S'SSec25.jpg'
p2689
ag1865
aa(lp2690
S'SSec26.jpg'
p2691
ag1865
aa(lp2692
S'SSec27.jpg'
p2693
ag1865
aa(lp2694
S'SSec28.jpg'
p2695
ag1865
aa(lp2696
S'SSec29.jpg'
p2697
ag1865
aa(lp2698
S'SSec3.jpg'
p2699
ag1865
aa(lp2700
S'SSec30.jpg'
p2701
ag1865
aa(lp2702
S'SSec31.jpg'
p2703
ag1865
aa(lp2704
S'SSec32.jpg'
p2705
ag1865
aa(lp2706
S'SSec33.jpg'
p2707
ag1865
aa(lp2708
S'SSec34.jpg'
p2709
ag1865
aa(lp2710
S'SSec35.jpg'
p2711
ag1865
aa(lp2712
S'SSec36.jpg'
p2713
ag1865
aa(lp2714
S'SSec37.jpg'
p2715
ag1865
aa(lp2716
S'SSec38.jpg'
p2717
ag1865
aa(lp2718
S'SSec39.jpg'
p2719
ag1865
aa(lp2720
S'SSec4.jpg'
p2721
ag1865
aa(lp2722
S'SSec40.jpg'
p2723
ag1865
aa(lp2724
S'SSec41.jpg'
p2725
ag1865
aa(lp2726
S'SSec42.jpg'
p2727
ag1865
aa(lp2728
S'SSec43.jpg'
p2729
ag1865
aa(lp2730
S'SSec44.jpg'
p2731
ag1865
aa(lp2732
S'SSec45.jpg'
p2733
ag1865
aa(lp2734
S'SSec46.jpg'
p2735
ag1865
aa(lp2736
S'SSec47.jpg'
p2737
ag1865
aa(lp2738
S'SSec48.jpg'
p2739
ag1865
aa(lp2740
S'SSec49.jpg'
p2741
ag1865
aa(lp2742
S'SSec5.jpg'
p2743
ag1865
aa(lp2744
S'SSec50.jpg'
p2745
ag1865
aa(lp2746
S'SSec51.jpg'
p2747
ag1865
aa(lp2748
S'SSec52.jpg'
p2749
ag1865
aa(lp2750
S'SSec53.jpg'
p2751
ag1865
aa(lp2752
S'SSec54.jpg'
p2753
ag1865
aa(lp2754
S'SSec55.jpg'
p2755
ag1865
aa(lp2756
S'SSec56.jpg'
p2757
ag1865
aa(lp2758
S'SSec57.jpg'
p2759
ag1865
aa(lp2760
S'SSec58.jpg'
p2761
ag1865
aa(lp2762
S'SSec59.jpg'
p2763
ag1865
aa(lp2764
S'SSec6.jpg'
p2765
ag1865
aa(lp2766
S'SSec60.jpg'
p2767
ag1865
aa(lp2768
S'SSec61.jpg'
p2769
ag1865
aa(lp2770
S'SSec62.jpg'
p2771
ag1865
aa(lp2772
S'SSec63.jpg'
p2773
ag1865
aa(lp2774
S'SSec64.jpg'
p2775
ag1865
aa(lp2776
S'SSec65.jpg'
p2777
ag1865
aa(lp2778
S'SSec66.jpg'
p2779
ag1865
aa(lp2780
S'SSec67.jpg'
p2781
ag1865
aa(lp2782
S'SSec7.jpg'
p2783
ag1865
aa(lp2784
S'SSec8.jpg'
p2785
ag1865
aa(lp2786
S'SSec9.jpg'
p2787
ag1865
aa(lp2788
S'ThreeFile13.jpg'
p2789
ag1865
aa(lp2790
S'ThreeFile14.jpg'
p2791
ag1865
aa(lp2792
S'ThreeFile15.jpg'
p2793
ag1865
aa(lp2794
S'ThreeFile16.jpg'
p2795
ag1865
aa(lp2796
S'ThreeFile17.jpg'
p2797
ag1865
aa(lp2798
S'ThreeFile18.jpg'
p2799
ag1865
aa(lp2800
S'ThreeFile19.jpg'
p2801
ag1865
aa(lp2802
S'ThreeFile20.jpg'
p2803
ag1865
aa(lp2804
S'ThreeFile21.jpg'
p2805
ag1865
aa(lp2806
S'ThreeFile22.jpg'
p2807
ag1865
aa(lp2808
S'ThreeFile23.jpg'
p2809
ag1865
aa(lp2810
S'ThreeFile24.jpg'
p2811
ag1865
aa(lp2812
S'ThreeFile25.jpg'
p2813
ag1865
aa(lp2814
S'ThreeFile26.jpg'
p2815
ag1865
aa(lp2816
S'ThreeFile27.jpg'
p2817
ag1865
aa(lp2818
S'ThreeFile28.jpg'
p2819
ag1865
aa(lp2820
S'ThreeFile29.jpg'
p2821
ag1865
aa(lp2822
S'ThreeFile30.jpg'
p2823
ag1865
aa(lp2824
S'ThreeFile31.jpg'
p2825
ag1865
aa(lp2826
S'ThreeFile32.jpg'
p2827
ag1865
aa(lp2828
S'ThreeFile33.jpg'
p2829
ag1865
aa(lp2830
S'ThreeFile34.jpg'
p2831
ag1865
aa(lp2832
S'ThreeFile35.jpg'
p2833
ag1865
aa(lp2834
S'ThreeFile36.jpg'
p2835
ag1865
aa(lp2836
S'ThreeFile37.jpg'
p2837
ag1865
aa(lp2838
S'ThreeFile38.jpg'
p2839
ag1865
aa(lp2840
S'ThreeFile39.jpg'
p2841
ag1865
aa(lp2842
S'ThreeFile40.jpg'
p2843
ag1865
aa(lp2844
S'ThreeFile41.jpg'
p2845
ag1865
aa(lp2846
S'ThreeFile42.jpg'
p2847
ag1865
aa(lp2848
S'ThreeFile43.jpg'
p2849
ag1865
aa(lp2850
S'ThreeFile44.jpg'
p2851
ag1865
aa(lp2852
S'ThreeFile45.jpg'
p2853
ag1865
aa(lp2854
S'ThreeFile46.jpg'
p2855
ag1865
aa(lp2856
S'ThreeFile47.jpg'
p2857
ag1865
aa(lp2858
S'ThreeFile48.jpg'
p2859
ag1865
aa(lp2860
S'TwoFile12.jpg'
p2861
ag1865
aa(lp2862
S'TwoFile13.jpg'
p2863
ag1865
aa(lp2864
S'TwoFile14.jpg'
p2865
ag1865
aa(lp2866
S'TwoFile15.jpg'
p2867
ag1865
aa(lp2868
S'TwoFile16.jpg'
p2869
ag1865
aa(lp2870
S'TwoFile17.jpg'
p2871
ag1865
aa(lp2872
S'TwoFile18.jpg'
p2873
ag1865
aa(lp2874
S'TwoFile19.jpg'
p2875
ag1865
aa(lp2876
S'TwoFile20.jpg'
p2877
ag1865
aa(lp2878
S'TwoFile21.jpg'
p2879
ag1865
aa(lp2880
S'TwoFile22.jpg'
p2881
ag1865
aa(lp2882
S'TwoFile23.jpg'
p2883
ag1865
aa(lp2884
S'TwoFile24.jpg'
p2885
ag1865
aa(lp2886
S'TwoFile25.jpg'
p2887
ag1865
aa(lp2888
S'TwoFile26.jpg'
p2889
ag1865
aa(lp2890
S'TwoFile27.jpg'
p2891
ag1865
aa(lp2892
S'TwoFile28.jpg'
p2893
ag1865
aa(lp2894
S'TwoFile29.jpg'
p2895
ag1865
aa(lp2896
S'TwoFile30.jpg'
p2897
ag1865
aa(lp2898
S'TwoFile31.jpg'
p2899
ag1865
aa(lp2900
S'TwoFile32.jpg'
p2901
ag1865
aa(lp2902
S'TwoFile33.jpg'
p2903
ag1865
aa(lp2904
S'TwoFile34.jpg'
p2905
ag1865
aa(lp2906
S'TwoFile35.jpg'
p2907
ag1865
aa(lp2908
S'TwoFile36.jpg'
p2909
ag1865
aa(lp2910
S'TwoFile37.jpg'
p2911
ag1865
aa(lp2912
S'TwoFile38.jpg'
p2913
ag1865
aa(lp2914
S'TwoFile39.jpg'
p2915
ag1865
aa(lp2916
S'TwoFile40.jpg'
p2917
ag1865
aa(lp2918
S'TwoFile41.jpg'
p2919
ag1865
aa(lp2920
S'TwoFile42.jpg'
p2921
ag1865
aa(lp2922
S'TwoFile43.jpg'
p2923
ag1865
aa(lp2924
S'TwoFile44.jpg'
p2925
ag1865
aa(lp2926
S'TwoFile45.jpg'
p2927
ag1865
aa(lp2928
S'TwoFile46.jpg'
p2929
ag1865
aa(lp2930
S'frame0.jpg'
p2931
aS'fingerspell'
p2932
aa(lp2933
S'frame1.jpg'
p2934
ag2932
aa(lp2935
S'frame2.jpg'
p2936
ag2932
aa(lp2937
S'frame3.jpg'
p2938
ag2932
aa(lp2939
S'frame4.jpg'
p2940
ag2932
aa(lp2941
S'frame5.jpg'
p2942
ag2932
aa(lp2943
S'frame6.jpg'
p2944
ag2932
aa(lp2945
S'N File1.jpg'
p2946
ag2932
aa(lp2947
S'N File10.jpg'
p2948
ag2932
aa(lp2949
S'N File11.jpg'
p2950
ag2932
aa(lp2951
S'N File12.jpg'
p2952
ag2932
aa(lp2953
S'N File13.jpg'
p2954
ag2932
aa(lp2955
S'N File14.jpg'
p2956
ag2932
aa(lp2957
S'N File15.jpg'
p2958
ag2932
aa(lp2959
S'N File16.jpg'
p2960
ag2932
aa(lp2961
S'N File17.jpg'
p2962
ag2932
aa(lp2963
S'N File18.jpg'
p2964
ag2932
aa(lp2965
S'N File19.jpg'
p2966
ag2932
aa(lp2967
S'N File2.jpg'
p2968
ag2932
aa(lp2969
S'N File20.jpg'
p2970
ag2932
aa(lp2971
S'N File21.jpg'
p2972
ag2932
aa(lp2973
S'N File22.jpg'
p2974
ag2932
aa(lp2975
S'N File23.jpg'
p2976
ag2932
aa(lp2977
S'N File24.jpg'
p2978
ag2932
aa(lp2979
S'N File25.jpg'
p2980
ag2932
aa(lp2981
S'N File3.jpg'
p2982
ag2932
aa(lp2983
S'N File4.jpg'
p2984
ag2932
aa(lp2985
S'N File5.jpg'
p2986
ag2932
aa(lp2987
S'N File6.jpg'
p2988
ag2932
aa(lp2989
S'N File7.jpg'
p2990
ag2932
aa(lp2991
S'N File8.jpg'
p2992
ag2932
aa(lp2993
S'N File9.jpg'
p2994
ag2932
aa(lp2995
S'Ni File1.jpg'
p2996
ag2932
aa(lp2997
S'Ni File10.jpg'
p2998
ag2932
aa(lp2999
S'Ni File11.jpg'
p3000
ag2932
aa(lp3001
S'Ni File12.jpg'
p3002
ag2932
aa(lp3003
S'Ni File13.jpg'
p3004
ag2932
aa(lp3005
S'Ni File14.jpg'
p3006
ag2932
aa(lp3007
S'Ni File15.jpg'
p3008
ag2932
aa(lp3009
S'Ni File16.jpg'
p3010
ag2932
aa(lp3011
S'Ni File17.jpg'
p3012
ag2932
aa(lp3013
S'Ni File18.jpg'
p3014
ag2932
aa(lp3015
S'Ni File19.jpg'
p3016
ag2932
aa(lp3017
S'Ni File2.jpg'
p3018
ag2932
aa(lp3019
S'Ni File3.jpg'
p3020
ag2932
aa(lp3021
S'Ni File4.jpg'
p3022
ag2932
aa(lp3023
S'Ni File5.jpg'
p3024
ag2932
aa(lp3025
S'Ni File6.jpg'
p3026
ag2932
aa(lp3027
S'Ni File7.jpg'
p3028
ag2932
aa(lp3029
S'Ni File8.jpg'
p3030
ag2932
aa(lp3031
S'Ni File9.jpg'
p3032
ag2932
aa(lp3033
S'OneFile16.jpg'
p3034
ag2932
aa(lp3035
S'OneFile17.jpg'
p3036
ag2932
aa(lp3037
S'OneFile18.jpg'
p3038
ag2932
aa(lp3039
S'OneFile19.jpg'
p3040
ag2932
aa(lp3041
S'OneFile20.jpg'
p3042
ag2932
aa(lp3043
S'OneFile21.jpg'
p3044
ag2932
aa(lp3045
S'OneFile22.jpg'
p3046
ag2932
aa(lp3047
S'OneFile23.jpg'
p3048
ag2932
aa(lp3049
S'OneFile24.jpg'
p3050
ag2932
aa(lp3051
S'OneFile25.jpg'
p3052
ag2932
aa(lp3053
S'OneFile26.jpg'
p3054
ag2932
aa(lp3055
S'OneFile27.jpg'
p3056
ag2932
aa(lp3057
S'OneFile28.jpg'
p3058
ag2932
aa(lp3059
S'OneFile29.jpg'
p3060
ag2932
aa(lp3061
S'OneFile30.jpg'
p3062
ag2932
aa(lp3063
S'OneFile31.jpg'
p3064
ag2932
aa(lp3065
S'OneFile32.jpg'
p3066
ag2932
aa(lp3067
S'OneFile33.jpg'
p3068
ag2932
aa(lp3069
S'OneFile34.jpg'
p3070
ag2932
aa(lp3071
S'OneFile35.jpg'
p3072
ag2932
aa(lp3073
S'OneFile36.jpg'
p3074
ag2932
aa(lp3075
S'OneFile37.jpg'
p3076
ag2932
aa(lp3077
S'OneFile38.jpg'
p3078
ag2932
aa(lp3079
S'OneFile39.jpg'
p3080
ag2932
aa(lp3081
S'OneFile40.jpg'
p3082
ag2932
aa(lp3083
S'OneFile41.jpg'
p3084
ag2932
aa(lp3085
S'OneFile42.jpg'
p3086
ag2932
aa(lp3087
S'OneFile43.jpg'
p3088
ag2932
aa(lp3089
S'OneFile44.jpg'
p3090
ag2932
aa(lp3091
S'OneFile45.jpg'
p3092
ag2932
aa(lp3093
S'OneFile46.jpg'
p3094
ag2932
aa(lp3095
S'P File1.jpg'
p3096
ag2932
aa(lp3097
S'P File10.jpg'
p3098
ag2932
aa(lp3099
S'P File11.jpg'
p3100
ag2932
aa(lp3101
S'P File12.jpg'
p3102
ag2932
aa(lp3103
S'P File13.jpg'
p3104
ag2932
aa(lp3105
S'P File14.jpg'
p3106
ag2932
aa(lp3107
S'P File15.jpg'
p3108
ag2932
aa(lp3109
S'P File2.jpg'
p3110
ag2932
aa(lp3111
S'P File3.jpg'
p3112
ag2932
aa(lp3113
S'P File4.jpg'
p3114
ag2932
aa(lp3115
S'P File5.jpg'
p3116
ag2932
aa(lp3117
S'P File6.jpg'
p3118
ag2932
aa(lp3119
S'P File7.jpg'
p3120
ag2932
aa(lp3121
S'P File8.jpg'
p3122
ag2932
aa(lp3123
S'P File9.jpg'
p3124
ag2932
aa(lp3125
S'PavOne0.jpg'
p3126
ag2932
aa(lp3127
S'PavOne1.jpg'
p3128
ag2932
aa(lp3129
S'PavOne10.jpg'
p3130
ag2932
aa(lp3131
S'PavOne11.jpg'
p3132
ag2932
aa(lp3133
S'PavOne12.jpg'
p3134
ag2932
aa(lp3135
S'PavOne13.jpg'
p3136
ag2932
aa(lp3137
S'PavOne14.jpg'
p3138
ag2932
aa(lp3139
S'PavOne15.jpg'
p3140
ag2932
aa(lp3141
S'PavOne16.jpg'
p3142
ag2932
aa(lp3143
S'PavOne17.jpg'
p3144
ag2932
aa(lp3145
S'PavOne18.jpg'
p3146
ag2932
aa(lp3147
S'PavOne19.jpg'
p3148
ag2932
aa(lp3149
S'PavOne2.jpg'
p3150
ag2932
aa(lp3151
S'PavOne20.jpg'
p3152
ag2932
aa(lp3153
S'PavOne21.jpg'
p3154
ag2932
aa(lp3155
S'PavOne22.jpg'
p3156
ag2932
aa(lp3157
S'PavOne23.jpg'
p3158
ag2932
aa(lp3159
S'PavOne24.jpg'
p3160
ag2932
aa(lp3161
S'PavOne25.jpg'
p3162
ag2932
aa(lp3163
S'PavOne26.jpg'
p3164
ag2932
aa(lp3165
S'PavOne27.jpg'
p3166
ag2932
aa(lp3167
S'PavOne28.jpg'
p3168
ag2932
aa(lp3169
S'PavOne29.jpg'
p3170
ag2932
aa(lp3171
S'PavOne3.jpg'
p3172
ag2932
aa(lp3173
S'PavOne4.jpg'
p3174
ag2932
aa(lp3175
S'PavOne5.jpg'
p3176
ag2932
aa(lp3177
S'PavOne6.jpg'
p3178
ag2932
aa(lp3179
S'PavOne7.jpg'
p3180
ag2932
aa(lp3181
S'PavOne8.jpg'
p3182
ag2932
aa(lp3183
S'PavOne9.jpg'
p3184
ag2932
aa(lp3185
S'PavThree0.jpg'
p3186
ag2932
aa(lp3187
S'PavThree1.jpg'
p3188
ag2932
aa(lp3189
S'PavThree10.jpg'
p3190
ag2932
aa(lp3191
S'PavThree11.jpg'
p3192
ag2932
aa(lp3193
S'PavThree12.jpg'
p3194
ag2932
aa(lp3195
S'PavThree13.jpg'
p3196
ag2932
aa(lp3197
S'PavThree14.jpg'
p3198
ag2932
aa(lp3199
S'PavThree15.jpg'
p3200
ag2932
aa(lp3201
S'PavThree16.jpg'
p3202
ag2932
aa(lp3203
S'PavThree17.jpg'
p3204
ag2932
aa(lp3205
S'PavThree18.jpg'
p3206
ag2932
aa(lp3207
S'PavThree19.jpg'
p3208
ag2932
aa(lp3209
S'PavThree2.jpg'
p3210
ag2932
aa(lp3211
S'PavThree20.jpg'
p3212
ag2932
aa(lp3213
S'PavThree21.jpg'
p3214
ag2932
aa(lp3215
S'PavThree22.jpg'
p3216
ag2932
aa(lp3217
S'PavThree23.jpg'
p3218
ag2932
aa(lp3219
S'PavThree24.jpg'
p3220
ag2932
aa(lp3221
S'PavThree25.jpg'
p3222
ag2932
aa(lp3223
S'PavThree26.jpg'
p3224
ag2932
aa(lp3225
S'PavThree27.jpg'
p3226
ag2932
aa(lp3227
S'PavThree28.jpg'
p3228
ag2932
aa(lp3229
S'PavThree29.jpg'
p3230
ag2932
aa(lp3231
S'PavThree3.jpg'
p3232
ag2932
aa(lp3233
S'PavThree30.jpg'
p3234
ag2932
aa(lp3235
S'PavThree4.jpg'
p3236
ag2932
aa(lp3237
S'PavThree5.jpg'
p3238
ag2932
aa(lp3239
S'PavThree6.jpg'
p3240
ag2932
aa(lp3241
S'PavThree7.jpg'
p3242
ag2932
aa(lp3243
S'PavThree8.jpg'
p3244
ag2932
aa(lp3245
S'PavThree9.jpg'
p3246
ag2932
aa(lp3247
S'PavTwo0.jpg'
p3248
ag2932
aa(lp3249
S'PavTwo1.jpg'
p3250
ag2932
aa(lp3251
S'PavTwo10.jpg'
p3252
ag2932
aa(lp3253
S'PavTwo11.jpg'
p3254
ag2932
aa(lp3255
S'PavTwo12.jpg'
p3256
ag2932
aa(lp3257
S'PavTwo13.jpg'
p3258
ag2932
aa(lp3259
S'PavTwo14.jpg'
p3260
ag2932
aa(lp3261
S'PavTwo15.jpg'
p3262
ag2932
aa(lp3263
S'PavTwo16.jpg'
p3264
ag2932
aa(lp3265
S'PavTwo17.jpg'
p3266
ag2932
aa(lp3267
S'PavTwo18.jpg'
p3268
ag2932
aa(lp3269
S'PavTwo19.jpg'
p3270
ag2932
aa(lp3271
S'PavTwo2.jpg'
p3272
ag2932
aa(lp3273
S'PavTwo20.jpg'
p3274
ag2932
aa(lp3275
S'PavTwo21.jpg'
p3276
ag2932
aa(lp3277
S'PavTwo22.jpg'
p3278
ag2932
aa(lp3279
S'PavTwo23.jpg'
p3280
ag2932
aa(lp3281
S'PavTwo24.jpg'
p3282
ag2932
aa(lp3283
S'PavTwo25.jpg'
p3284
ag2932
aa(lp3285
S'PavTwo26.jpg'
p3286
ag2932
aa(lp3287
S'PavTwo3.jpg'
p3288
ag2932
aa(lp3289
S'PavTwo4.jpg'
p3290
ag2932
aa(lp3291
S'PavTwo5.jpg'
p3292
ag2932
aa(lp3293
S'PavTwo6.jpg'
p3294
ag2932
aa(lp3295
S'PavTwo7.jpg'
p3296
ag2932
aa(lp3297
S'PavTwo8.jpg'
p3298
ag2932
aa(lp3299
S'PavTwo9.jpg'
p3300
ag2932
aa(lp3301
S'Payel10.jpg'
p3302
ag2932
aa(lp3303
S'Payel11.jpg'
p3304
ag2932
aa(lp3305
S'Payel12.jpg'
p3306
ag2932
aa(lp3307
S'Payel13.jpg'
p3308
ag2932
aa(lp3309
S'Payel14.jpg'
p3310
ag2932
aa(lp3311
S'Payel15.jpg'
p3312
ag2932
aa(lp3313
S'Payel25.jpg'
p3314
ag2932
aa(lp3315
S'Payel26.jpg'
p3316
ag2932
aa(lp3317
S'Payel27.jpg'
p3318
ag2932
aa(lp3319
S'Payel28.jpg'
p3320
ag2932
aa(lp3321
S'Payel29.jpg'
p3322
ag2932
aa(lp3323
S'Payel30.jpg'
p3324
ag2932
aa(lp3325
S'Payel31.jpg'
p3326
ag2932
aa(lp3327
S'Payel32.jpg'
p3328
ag2932
aa(lp3329
S'Payel33.jpg'
p3330
ag2932
aa(lp3331
S'Payel40.jpg'
p3332
ag2932
aa(lp3333
S'Payel41.jpg'
p3334
ag2932
aa(lp3335
S'Payel42.jpg'
p3336
ag2932
aa(lp3337
S'Payel43.jpg'
p3338
ag2932
aa(lp3339
S'Payel44.jpg'
p3340
ag2932
aa(lp3341
S'Payel45.jpg'
p3342
ag2932
aa(lp3343
S'Payel46.jpg'
p3344
ag2932
aa(lp3345
S'Payel47.jpg'
p3346
ag2932
aa(lp3347
S'Payel48.jpg'
p3348
ag2932
aa(lp3349
S'Payel49.jpg'
p3350
ag2932
aa(lp3351
S'Payel6.jpg'
p3352
ag2932
aa(lp3353
S'Payel7.jpg'
p3354
ag2932
aa(lp3355
S'Payel8.jpg'
p3356
ag2932
aa(lp3357
S'Payel9.jpg'
p3358
ag2932
aa(lp3359
S'PTwo1.jpg'
p3360
ag2932
aa(lp3361
S'PTwo10.jpg'
p3362
ag2932
aa(lp3363
S'PTwo11.jpg'
p3364
ag2932
aa(lp3365
S'PTwo12.jpg'
p3366
ag2932
aa(lp3367
S'PTwo13.jpg'
p3368
ag2932
aa(lp3369
S'PTwo14.jpg'
p3370
ag2932
aa(lp3371
S'PTwo15.jpg'
p3372
ag2932
aa(lp3373
S'PTwo16.jpg'
p3374
ag2932
aa(lp3375
S'PTwo17.jpg'
p3376
ag2932
aa(lp3377
S'PTwo18.jpg'
p3378
ag2932
aa(lp3379
S'PTwo19.jpg'
p3380
ag2932
aa(lp3381
S'PTwo2.jpg'
p3382
ag2932
aa(lp3383
S'PTwo20.jpg'
p3384
ag2932
aa(lp3385
S'PTwo21.jpg'
p3386
ag2932
aa(lp3387
S'PTwo22.jpg'
p3388
ag2932
aa(lp3389
S'PTwo23.jpg'
p3390
ag2932
aa(lp3391
S'PTwo24.jpg'
p3392
ag2932
aa(lp3393
S'PTwo25.jpg'
p3394
ag2932
aa(lp3395
S'PTwo26.jpg'
p3396
ag2932
aa(lp3397
S'PTwo27.jpg'
p3398
ag2932
aa(lp3399
S'PTwo28.jpg'
p3400
ag2932
aa(lp3401
S'PTwo29.jpg'
p3402
ag2932
aa(lp3403
S'PTwo3.jpg'
p3404
ag2932
aa(lp3405
S'PTwo30.jpg'
p3406
ag2932
aa(lp3407
S'PTwo31.jpg'
p3408
ag2932
aa(lp3409
S'PTwo32.jpg'
p3410
ag2932
aa(lp3411
S'PTwo33.jpg'
p3412
ag2932
aa(lp3413
S'PTwo34.jpg'
p3414
ag2932
aa(lp3415
S'PTwo35.jpg'
p3416
ag2932
aa(lp3417
S'PTwo36.jpg'
p3418
ag2932
aa(lp3419
S'PTwo37.jpg'
p3420
ag2932
aa(lp3421
S'PTwo38.jpg'
p3422
ag2932
aa(lp3423
S'PTwo39.jpg'
p3424
ag2932
aa(lp3425
S'PTwo4.jpg'
p3426
ag2932
aa(lp3427
S'PTwo5.jpg'
p3428
ag2932
aa(lp3429
S'PTwo6.jpg'
p3430
ag2932
aa(lp3431
S'PTwo7.jpg'
p3432
ag2932
aa(lp3433
S'PTwo8.jpg'
p3434
ag2932
aa(lp3435
S'PTwo9.jpg'
p3436
ag2932
aa(lp3437
S'S File10.jpg'
p3438
ag2932
aa(lp3439
S'S File11.jpg'
p3440
ag2932
aa(lp3441
S'S File12.jpg'
p3442
ag2932
aa(lp3443
S'S File13.jpg'
p3444
ag2932
aa(lp3445
S'S File14.jpg'
p3446
ag2932
aa(lp3447
S'S File15.jpg'
p3448
ag2932
aa(lp3449
S'S File16.jpg'
p3450
ag2932
aa(lp3451
S'S File17.jpg'
p3452
ag2932
aa(lp3453
S'S File18.jpg'
p3454
ag2932
aa(lp3455
S'S File19.jpg'
p3456
ag2932
aa(lp3457
S'S File20.jpg'
p3458
ag2932
aa(lp3459
S'S File21.jpg'
p3460
ag2932
aa(lp3461
S'S File22.jpg'
p3462
ag2932
aa(lp3463
S'S File23.jpg'
p3464
ag2932
aa(lp3465
S'S File24.jpg'
p3466
ag2932
aa(lp3467
S'S File25.jpg'
p3468
ag2932
aa(lp3469
S'S File26.jpg'
p3470
ag2932
aa(lp3471
S'S File6.jpg'
p3472
ag2932
aa(lp3473
S'S File7.jpg'
p3474
ag2932
aa(lp3475
S'S File8.jpg'
p3476
ag2932
aa(lp3477
S'S File9.jpg'
p3478
ag2932
aa(lp3479
S'SSec1.jpg'
p3480
ag2932
aa(lp3481
S'SSec10.jpg'
p3482
ag2932
aa(lp3483
S'SSec11.jpg'
p3484
ag2932
aa(lp3485
S'SSec12.jpg'
p3486
ag2932
aa(lp3487
S'SSec13.jpg'
p3488
ag2932
aa(lp3489
S'SSec14.jpg'
p3490
ag2932
aa(lp3491
S'SSec15.jpg'
p3492
ag2932
aa(lp3493
S'SSec16.jpg'
p3494
ag2932
aa(lp3495
S'SSec17.jpg'
p3496
ag2932
aa(lp3497
S'SSec18.jpg'
p3498
ag2932
aa(lp3499
S'SSec19.jpg'
p3500
ag2932
aa(lp3501
S'SSec2.jpg'
p3502
ag2932
aa(lp3503
S'SSec20.jpg'
p3504
ag2932
aa(lp3505
S'SSec21.jpg'
p3506
ag2932
aa(lp3507
S'SSec22.jpg'
p3508
ag2932
aa(lp3509
S'SSec23.jpg'
p3510
ag2932
aa(lp3511
S'SSec24.jpg'
p3512
ag2932
aa(lp3513
S'SSec25.jpg'
p3514
ag2932
aa(lp3515
S'SSec26.jpg'
p3516
ag2932
aa(lp3517
S'SSec27.jpg'
p3518
ag2932
aa(lp3519
S'SSec28.jpg'
p3520
ag2932
aa(lp3521
S'SSec29.jpg'
p3522
ag2932
aa(lp3523
S'SSec3.jpg'
p3524
ag2932
aa(lp3525
S'SSec30.jpg'
p3526
ag2932
aa(lp3527
S'SSec31.jpg'
p3528
ag2932
aa(lp3529
S'SSec32.jpg'
p3530
ag2932
aa(lp3531
S'SSec33.jpg'
p3532
ag2932
aa(lp3533
S'SSec34.jpg'
p3534
ag2932
aa(lp3535
S'SSec35.jpg'
p3536
ag2932
aa(lp3537
S'SSec36.jpg'
p3538
ag2932
aa(lp3539
S'SSec37.jpg'
p3540
ag2932
aa(lp3541
S'SSec38.jpg'
p3542
ag2932
aa(lp3543
S'SSec39.jpg'
p3544
ag2932
aa(lp3545
S'SSec4.jpg'
p3546
ag2932
aa(lp3547
S'SSec40.jpg'
p3548
ag2932
aa(lp3549
S'SSec41.jpg'
p3550
ag2932
aa(lp3551
S'SSec42.jpg'
p3552
ag2932
aa(lp3553
S'SSec43.jpg'
p3554
ag2932
aa(lp3555
S'SSec44.jpg'
p3556
ag2932
aa(lp3557
S'SSec45.jpg'
p3558
ag2932
aa(lp3559
S'SSec46.jpg'
p3560
ag2932
aa(lp3561
S'SSec47.jpg'
p3562
ag2932
aa(lp3563
S'SSec48.jpg'
p3564
ag2932
aa(lp3565
S'SSec49.jpg'
p3566
ag2932
aa(lp3567
S'SSec5.jpg'
p3568
ag2932
aa(lp3569
S'SSec50.jpg'
p3570
ag2932
aa(lp3571
S'SSec51.jpg'
p3572
ag2932
aa(lp3573
S'SSec52.jpg'
p3574
ag2932
aa(lp3575
S'SSec53.jpg'
p3576
ag2932
aa(lp3577
S'SSec54.jpg'
p3578
ag2932
aa(lp3579
S'SSec55.jpg'
p3580
ag2932
aa(lp3581
S'SSec56.jpg'
p3582
ag2932
aa(lp3583
S'SSec57.jpg'
p3584
ag2932
aa(lp3585
S'SSec58.jpg'
p3586
ag2932
aa(lp3587
S'SSec59.jpg'
p3588
ag2932
aa(lp3589
S'SSec6.jpg'
p3590
ag2932
aa(lp3591
S'SSec60.jpg'
p3592
ag2932
aa(lp3593
S'SSec61.jpg'
p3594
ag2932
aa(lp3595
S'SSec62.jpg'
p3596
ag2932
aa(lp3597
S'SSec63.jpg'
p3598
ag2932
aa(lp3599
S'SSec64.jpg'
p3600
ag2932
aa(lp3601
S'SSec65.jpg'
p3602
ag2932
aa(lp3603
S'SSec66.jpg'
p3604
ag2932
aa(lp3605
S'SSec67.jpg'
p3606
ag2932
aa(lp3607
S'SSec68.jpg'
p3608
ag2932
aa(lp3609
S'SSec69.jpg'
p3610
ag2932
aa(lp3611
S'SSec7.jpg'
p3612
ag2932
aa(lp3613
S'SSec70.jpg'
p3614
ag2932
aa(lp3615
S'SSec71.jpg'
p3616
ag2932
aa(lp3617
S'SSec72.jpg'
p3618
ag2932
aa(lp3619
S'SSec73.jpg'
p3620
ag2932
aa(lp3621
S'SSec74.jpg'
p3622
ag2932
aa(lp3623
S'SSec75.jpg'
p3624
ag2932
aa(lp3625
S'SSec76.jpg'
p3626
ag2932
aa(lp3627
S'SSec77.jpg'
p3628
ag2932
aa(lp3629
S'SSec78.jpg'
p3630
ag2932
aa(lp3631
S'SSec79.jpg'
p3632
ag2932
aa(lp3633
S'SSec8.jpg'
p3634
ag2932
aa(lp3635
S'SSec80.jpg'
p3636
ag2932
aa(lp3637
S'SSec81.jpg'
p3638
ag2932
aa(lp3639
S'SSec9.jpg'
p3640
ag2932
aa(lp3641
S'ThreeFile11.jpg'
p3642
ag2932
aa(lp3643
S'ThreeFile12.jpg'
p3644
ag2932
aa(lp3645
S'ThreeFile13.jpg'
p3646
ag2932
aa(lp3647
S'ThreeFile14.jpg'
p3648
ag2932
aa(lp3649
S'ThreeFile15.jpg'
p3650
ag2932
aa(lp3651
S'ThreeFile16.jpg'
p3652
ag2932
aa(lp3653
S'ThreeFile17.jpg'
p3654
ag2932
aa(lp3655
S'ThreeFile18.jpg'
p3656
ag2932
aa(lp3657
S'ThreeFile19.jpg'
p3658
ag2932
aa(lp3659
S'ThreeFile20.jpg'
p3660
ag2932
aa(lp3661
S'ThreeFile21.jpg'
p3662
ag2932
aa(lp3663
S'ThreeFile22.jpg'
p3664
ag2932
aa(lp3665
S'ThreeFile23.jpg'
p3666
ag2932
aa(lp3667
S'ThreeFile24.jpg'
p3668
ag2932
aa(lp3669
S'ThreeFile25.jpg'
p3670
ag2932
aa(lp3671
S'ThreeFile26.jpg'
p3672
ag2932
aa(lp3673
S'ThreeFile27.jpg'
p3674
ag2932
aa(lp3675
S'ThreeFile28.jpg'
p3676
ag2932
aa(lp3677
S'ThreeFile29.jpg'
p3678
ag2932
aa(lp3679
S'ThreeFile30.jpg'
p3680
ag2932
aa(lp3681
S'ThreeFile31.jpg'
p3682
ag2932
aa(lp3683
S'ThreeFile32.jpg'
p3684
ag2932
aa(lp3685
S'ThreeFile33.jpg'
p3686
ag2932
aa(lp3687
S'ThreeFile34.jpg'
p3688
ag2932
aa(lp3689
S'ThreeFile35.jpg'
p3690
ag2932
aa(lp3691
S'ThreeFile36.jpg'
p3692
ag2932
aa(lp3693
S'ThreeFile37.jpg'
p3694
ag2932
aa(lp3695
S'ThreeFile38.jpg'
p3696
ag2932
aa(lp3697
S'ThreeFile39.jpg'
p3698
ag2932
aa(lp3699
S'ThreeFile40.jpg'
p3700
ag2932
aa(lp3701
S'ThreeFile41.jpg'
p3702
ag2932
aa(lp3703
S'ThreeFile42.jpg'
p3704
ag2932
aa(lp3705
S'ThreeFile43.jpg'
p3706
ag2932
aa(lp3707
S'ThreeFile44.jpg'
p3708
ag2932
aa(lp3709
S'TwoFile15.jpg'
p3710
ag2932
aa(lp3711
S'TwoFile16.jpg'
p3712
ag2932
aa(lp3713
S'TwoFile17.jpg'
p3714
ag2932
aa(lp3715
S'TwoFile18.jpg'
p3716
ag2932
aa(lp3717
S'TwoFile19.jpg'
p3718
ag2932
aa(lp3719
S'TwoFile20.jpg'
p3720
ag2932
aa(lp3721
S'TwoFile21.jpg'
p3722
ag2932
aa(lp3723
S'TwoFile22.jpg'
p3724
ag2932
aa(lp3725
S'TwoFile23.jpg'
p3726
ag2932
aa(lp3727
S'TwoFile24.jpg'
p3728
ag2932
aa(lp3729
S'TwoFile25.jpg'
p3730
ag2932
aa(lp3731
S'TwoFile26.jpg'
p3732
ag2932
aa(lp3733
S'TwoFile27.jpg'
p3734
ag2932
aa(lp3735
S'TwoFile28.jpg'
p3736
ag2932
aa(lp3737
S'TwoFile29.jpg'
p3738
ag2932
aa(lp3739
S'TwoFile30.jpg'
p3740
ag2932
aa(lp3741
S'TwoFile31.jpg'
p3742
ag2932
aa(lp3743
S'TwoFile32.jpg'
p3744
ag2932
aa(lp3745
S'TwoFile33.jpg'
p3746
ag2932
aa(lp3747
S'TwoFile34.jpg'
p3748
ag2932
aa(lp3749
S'TwoFile35.jpg'
p3750
ag2932
aa(lp3751
S'TwoFile36.jpg'
p3752
ag2932
aa(lp3753
S'TwoFile37.jpg'
p3754
ag2932
aa(lp3755
S'TwoFile38.jpg'
p3756
ag2932
aa(lp3757
S'TwoFile39.jpg'
p3758
ag2932
aa(lp3759
S'TwoFile40.jpg'
p3760
ag2932
aa(lp3761
S'TwoFile41.jpg'
p3762
ag2932
aa(lp3763
S'TwoFile42.jpg'
p3764
ag2932
aa(lp3765
S'TwoFile43.jpg'
p3766
ag2932
aa(lp3767
S'TwoFile44.jpg'
p3768
ag2932
aa(lp3769
S'frame0.jpg'
p3770
aS'from'
p3771
aa(lp3772
S'frame1.jpg'
p3773
ag3771
aa(lp3774
S'frame10.jpg'
p3775
ag3771
aa(lp3776
S'frame11.jpg'
p3777
ag3771
aa(lp3778
S'frame12.jpg'
p3779
ag3771
aa(lp3780
S'frame13.jpg'
p3781
ag3771
aa(lp3782
S'frame14.jpg'
p3783
ag3771
aa(lp3784
S'frame15.jpg'
p3785
ag3771
aa(lp3786
S'frame16.jpg'
p3787
ag3771
aa(lp3788
S'frame17.jpg'
p3789
ag3771
aa(lp3790
S'frame18.jpg'
p3791
ag3771
aa(lp3792
S'frame2.jpg'
p3793
ag3771
aa(lp3794
S'frame3.jpg'
p3795
ag3771
aa(lp3796
S'frame4.jpg'
p3797
ag3771
aa(lp3798
S'frame5.jpg'
p3799
ag3771
aa(lp3800
S'frame6.jpg'
p3801
ag3771
aa(lp3802
S'frame7.jpg'
p3803
ag3771
aa(lp3804
S'frame8.jpg'
p3805
ag3771
aa(lp3806
S'frame9.jpg'
p3807
ag3771
aa(lp3808
S'N File1.jpg'
p3809
ag3771
aa(lp3810
S'N File10.jpg'
p3811
ag3771
aa(lp3812
S'N File11.jpg'
p3813
ag3771
aa(lp3814
S'N File12.jpg'
p3815
ag3771
aa(lp3816
S'N File13.jpg'
p3817
ag3771
aa(lp3818
S'N File14.jpg'
p3819
ag3771
aa(lp3820
S'N File15.jpg'
p3821
ag3771
aa(lp3822
S'N File16.jpg'
p3823
ag3771
aa(lp3824
S'N File17.jpg'
p3825
ag3771
aa(lp3826
S'N File18.jpg'
p3827
ag3771
aa(lp3828
S'N File19.jpg'
p3829
ag3771
aa(lp3830
S'N File2.jpg'
p3831
ag3771
aa(lp3832
S'N File20.jpg'
p3833
ag3771
aa(lp3834
S'N File21.jpg'
p3835
ag3771
aa(lp3836
S'N File22.jpg'
p3837
ag3771
aa(lp3838
S'N File23.jpg'
p3839
ag3771
aa(lp3840
S'N File24.jpg'
p3841
ag3771
aa(lp3842
S'N File25.jpg'
p3843
ag3771
aa(lp3844
S'N File3.jpg'
p3845
ag3771
aa(lp3846
S'N File4.jpg'
p3847
ag3771
aa(lp3848
S'N File5.jpg'
p3849
ag3771
aa(lp3850
S'N File6.jpg'
p3851
ag3771
aa(lp3852
S'N File7.jpg'
p3853
ag3771
aa(lp3854
S'N File8.jpg'
p3855
ag3771
aa(lp3856
S'N File9.jpg'
p3857
ag3771
aa(lp3858
S'Ni File1.jpg'
p3859
ag3771
aa(lp3860
S'Ni File10.jpg'
p3861
ag3771
aa(lp3862
S'Ni File11.jpg'
p3863
ag3771
aa(lp3864
S'Ni File12.jpg'
p3865
ag3771
aa(lp3866
S'Ni File2.jpg'
p3867
ag3771
aa(lp3868
S'Ni File3.jpg'
p3869
ag3771
aa(lp3870
S'Ni File4.jpg'
p3871
ag3771
aa(lp3872
S'Ni File5.jpg'
p3873
ag3771
aa(lp3874
S'Ni File6.jpg'
p3875
ag3771
aa(lp3876
S'Ni File7.jpg'
p3877
ag3771
aa(lp3878
S'Ni File8.jpg'
p3879
ag3771
aa(lp3880
S'Ni File9.jpg'
p3881
ag3771
aa(lp3882
S'OneFile19.jpg'
p3883
ag3771
aa(lp3884
S'OneFile20.jpg'
p3885
ag3771
aa(lp3886
S'OneFile21.jpg'
p3887
ag3771
aa(lp3888
S'OneFile22.jpg'
p3889
ag3771
aa(lp3890
S'OneFile23.jpg'
p3891
ag3771
aa(lp3892
S'OneFile24.jpg'
p3893
ag3771
aa(lp3894
S'OneFile25.jpg'
p3895
ag3771
aa(lp3896
S'OneFile26.jpg'
p3897
ag3771
aa(lp3898
S'OneFile27.jpg'
p3899
ag3771
aa(lp3900
S'OneFile28.jpg'
p3901
ag3771
aa(lp3902
S'OneFile29.jpg'
p3903
ag3771
aa(lp3904
S'OneFile30.jpg'
p3905
ag3771
aa(lp3906
S'OneFile31.jpg'
p3907
ag3771
aa(lp3908
S'OneFile32.jpg'
p3909
ag3771
aa(lp3910
S'OneFile33.jpg'
p3911
ag3771
aa(lp3912
S'OneFile34.jpg'
p3913
ag3771
aa(lp3914
S'OneFile35.jpg'
p3915
ag3771
aa(lp3916
S'OneFile36.jpg'
p3917
ag3771
aa(lp3918
S'OneFile37.jpg'
p3919
ag3771
aa(lp3920
S'OneFile38.jpg'
p3921
ag3771
aa(lp3922
S'OneFile39.jpg'
p3923
ag3771
aa(lp3924
S'OneFile40.jpg'
p3925
ag3771
aa(lp3926
S'OneFile41.jpg'
p3927
ag3771
aa(lp3928
S'OneFile42.jpg'
p3929
ag3771
aa(lp3930
S'OneFile43.jpg'
p3931
ag3771
aa(lp3932
S'OneFile44.jpg'
p3933
ag3771
aa(lp3934
S'P File1.jpg'
p3935
ag3771
aa(lp3936
S'P File10.jpg'
p3937
ag3771
aa(lp3938
S'P File11.jpg'
p3939
ag3771
aa(lp3940
S'P File12.jpg'
p3941
ag3771
aa(lp3942
S'P File13.jpg'
p3943
ag3771
aa(lp3944
S'P File14.jpg'
p3945
ag3771
aa(lp3946
S'P File15.jpg'
p3947
ag3771
aa(lp3948
S'P File16.jpg'
p3949
ag3771
aa(lp3950
S'P File2.jpg'
p3951
ag3771
aa(lp3952
S'P File3.jpg'
p3953
ag3771
aa(lp3954
S'P File4.jpg'
p3955
ag3771
aa(lp3956
S'P File5.jpg'
p3957
ag3771
aa(lp3958
S'P File6.jpg'
p3959
ag3771
aa(lp3960
S'P File7.jpg'
p3961
ag3771
aa(lp3962
S'P File8.jpg'
p3963
ag3771
aa(lp3964
S'P File9.jpg'
p3965
ag3771
aa(lp3966
S'PavOne0.jpg'
p3967
ag3771
aa(lp3968
S'PavOne1.jpg'
p3969
ag3771
aa(lp3970
S'PavOne10.jpg'
p3971
ag3771
aa(lp3972
S'PavOne11.jpg'
p3973
ag3771
aa(lp3974
S'PavOne12.jpg'
p3975
ag3771
aa(lp3976
S'PavOne13.jpg'
p3977
ag3771
aa(lp3978
S'PavOne14.jpg'
p3979
ag3771
aa(lp3980
S'PavOne15.jpg'
p3981
ag3771
aa(lp3982
S'PavOne16.jpg'
p3983
ag3771
aa(lp3984
S'PavOne17.jpg'
p3985
ag3771
aa(lp3986
S'PavOne18.jpg'
p3987
ag3771
aa(lp3988
S'PavOne19.jpg'
p3989
ag3771
aa(lp3990
S'PavOne2.jpg'
p3991
ag3771
aa(lp3992
S'PavOne20.jpg'
p3993
ag3771
aa(lp3994
S'PavOne21.jpg'
p3995
ag3771
aa(lp3996
S'PavOne22.jpg'
p3997
ag3771
aa(lp3998
S'PavOne23.jpg'
p3999
ag3771
aa(lp4000
S'PavOne24.jpg'
p4001
ag3771
aa(lp4002
S'PavOne3.jpg'
p4003
ag3771
aa(lp4004
S'PavOne4.jpg'
p4005
ag3771
aa(lp4006
S'PavOne5.jpg'
p4007
ag3771
aa(lp4008
S'PavOne6.jpg'
p4009
ag3771
aa(lp4010
S'PavOne7.jpg'
p4011
ag3771
aa(lp4012
S'PavOne8.jpg'
p4013
ag3771
aa(lp4014
S'PavOne9.jpg'
p4015
ag3771
aa(lp4016
S'PavThree0.jpg'
p4017
ag3771
aa(lp4018
S'PavThree1.jpg'
p4019
ag3771
aa(lp4020
S'PavThree10.jpg'
p4021
ag3771
aa(lp4022
S'PavThree11.jpg'
p4023
ag3771
aa(lp4024
S'PavThree12.jpg'
p4025
ag3771
aa(lp4026
S'PavThree13.jpg'
p4027
ag3771
aa(lp4028
S'PavThree14.jpg'
p4029
ag3771
aa(lp4030
S'PavThree15.jpg'
p4031
ag3771
aa(lp4032
S'PavThree16.jpg'
p4033
ag3771
aa(lp4034
S'PavThree17.jpg'
p4035
ag3771
aa(lp4036
S'PavThree18.jpg'
p4037
ag3771
aa(lp4038
S'PavThree19.jpg'
p4039
ag3771
aa(lp4040
S'PavThree2.jpg'
p4041
ag3771
aa(lp4042
S'PavThree20.jpg'
p4043
ag3771
aa(lp4044
S'PavThree21.jpg'
p4045
ag3771
aa(lp4046
S'PavThree22.jpg'
p4047
ag3771
aa(lp4048
S'PavThree23.jpg'
p4049
ag3771
aa(lp4050
S'PavThree24.jpg'
p4051
ag3771
aa(lp4052
S'PavThree25.jpg'
p4053
ag3771
aa(lp4054
S'PavThree26.jpg'
p4055
ag3771
aa(lp4056
S'PavThree27.jpg'
p4057
ag3771
aa(lp4058
S'PavThree3.jpg'
p4059
ag3771
aa(lp4060
S'PavThree4.jpg'
p4061
ag3771
aa(lp4062
S'PavThree5.jpg'
p4063
ag3771
aa(lp4064
S'PavThree6.jpg'
p4065
ag3771
aa(lp4066
S'PavThree7.jpg'
p4067
ag3771
aa(lp4068
S'PavThree8.jpg'
p4069
ag3771
aa(lp4070
S'PavThree9.jpg'
p4071
ag3771
aa(lp4072
S'PavTwo0.jpg'
p4073
ag3771
aa(lp4074
S'PavTwo1.jpg'
p4075
ag3771
aa(lp4076
S'PavTwo10.jpg'
p4077
ag3771
aa(lp4078
S'PavTwo11.jpg'
p4079
ag3771
aa(lp4080
S'PavTwo12.jpg'
p4081
ag3771
aa(lp4082
S'PavTwo13.jpg'
p4083
ag3771
aa(lp4084
S'PavTwo14.jpg'
p4085
ag3771
aa(lp4086
S'PavTwo15.jpg'
p4087
ag3771
aa(lp4088
S'PavTwo16.jpg'
p4089
ag3771
aa(lp4090
S'PavTwo17.jpg'
p4091
ag3771
aa(lp4092
S'PavTwo18.jpg'
p4093
ag3771
aa(lp4094
S'PavTwo19.jpg'
p4095
ag3771
aa(lp4096
S'PavTwo2.jpg'
p4097
ag3771
aa(lp4098
S'PavTwo20.jpg'
p4099
ag3771
aa(lp4100
S'PavTwo21.jpg'
p4101
ag3771
aa(lp4102
S'PavTwo22.jpg'
p4103
ag3771
aa(lp4104
S'PavTwo23.jpg'
p4105
ag3771
aa(lp4106
S'PavTwo24.jpg'
p4107
ag3771
aa(lp4108
S'PavTwo3.jpg'
p4109
ag3771
aa(lp4110
S'PavTwo4.jpg'
p4111
ag3771
aa(lp4112
S'PavTwo5.jpg'
p4113
ag3771
aa(lp4114
S'PavTwo6.jpg'
p4115
ag3771
aa(lp4116
S'PavTwo7.jpg'
p4117
ag3771
aa(lp4118
S'PavTwo8.jpg'
p4119
ag3771
aa(lp4120
S'PavTwo9.jpg'
p4121
ag3771
aa(lp4122
S'Payel100.jpg'
p4123
ag3771
aa(lp4124
S'Payel101.jpg'
p4125
ag3771
aa(lp4126
S'Payel120.jpg'
p4127
ag3771
aa(lp4128
S'Payel121.jpg'
p4129
ag3771
aa(lp4130
S'Payel122.jpg'
p4131
ag3771
aa(lp4132
S'Payel123.jpg'
p4133
ag3771
aa(lp4134
S'Payel124.jpg'
p4135
ag3771
aa(lp4136
S'Payel125.jpg'
p4137
ag3771
aa(lp4138
S'Payel126.jpg'
p4139
ag3771
aa(lp4140
S'Payel127.jpg'
p4141
ag3771
aa(lp4142
S'Payel128.jpg'
p4143
ag3771
aa(lp4144
S'Payel129.jpg'
p4145
ag3771
aa(lp4146
S'Payel130.jpg'
p4147
ag3771
aa(lp4148
S'Payel131.jpg'
p4149
ag3771
aa(lp4150
S'Payel132.jpg'
p4151
ag3771
aa(lp4152
S'Payel133.jpg'
p4153
ag3771
aa(lp4154
S'Payel134.jpg'
p4155
ag3771
aa(lp4156
S'Payel135.jpg'
p4157
ag3771
aa(lp4158
S'Payel136.jpg'
p4159
ag3771
aa(lp4160
S'Payel137.jpg'
p4161
ag3771
aa(lp4162
S'Payel138.jpg'
p4163
ag3771
aa(lp4164
S'Payel139.jpg'
p4165
ag3771
aa(lp4166
S'Payel140.jpg'
p4167
ag3771
aa(lp4168
S'Payel141.jpg'
p4169
ag3771
aa(lp4170
S'Payel15.jpg'
p4171
ag3771
aa(lp4172
S'Payel16.jpg'
p4173
ag3771
aa(lp4174
S'Payel17.jpg'
p4175
ag3771
aa(lp4176
S'Payel18.jpg'
p4177
ag3771
aa(lp4178
S'Payel19.jpg'
p4179
ag3771
aa(lp4180
S'Payel20.jpg'
p4181
ag3771
aa(lp4182
S'Payel21.jpg'
p4183
ag3771
aa(lp4184
S'Payel22.jpg'
p4185
ag3771
aa(lp4186
S'Payel23.jpg'
p4187
ag3771
aa(lp4188
S'Payel24.jpg'
p4189
ag3771
aa(lp4190
S'Payel25.jpg'
p4191
ag3771
aa(lp4192
S'Payel26.jpg'
p4193
ag3771
aa(lp4194
S'Payel27.jpg'
p4195
ag3771
aa(lp4196
S'Payel28.jpg'
p4197
ag3771
aa(lp4198
S'Payel29.jpg'
p4199
ag3771
aa(lp4200
S'Payel30.jpg'
p4201
ag3771
aa(lp4202
S'Payel31.jpg'
p4203
ag3771
aa(lp4204
S'Payel32.jpg'
p4205
ag3771
aa(lp4206
S'Payel33.jpg'
p4207
ag3771
aa(lp4208
S'Payel34.jpg'
p4209
ag3771
aa(lp4210
S'Payel35.jpg'
p4211
ag3771
aa(lp4212
S'Payel36.jpg'
p4213
ag3771
aa(lp4214
S'Payel37.jpg'
p4215
ag3771
aa(lp4216
S'Payel38.jpg'
p4217
ag3771
aa(lp4218
S'Payel39.jpg'
p4219
ag3771
aa(lp4220
S'Payel40.jpg'
p4221
ag3771
aa(lp4222
S'Payel41.jpg'
p4223
ag3771
aa(lp4224
S'Payel42.jpg'
p4225
ag3771
aa(lp4226
S'Payel43.jpg'
p4227
ag3771
aa(lp4228
S'Payel44.jpg'
p4229
ag3771
aa(lp4230
S'Payel45.jpg'
p4231
ag3771
aa(lp4232
S'Payel46.jpg'
p4233
ag3771
aa(lp4234
S'Payel47.jpg'
p4235
ag3771
aa(lp4236
S'Payel48.jpg'
p4237
ag3771
aa(lp4238
S'Payel49.jpg'
p4239
ag3771
aa(lp4240
S'Payel50.jpg'
p4241
ag3771
aa(lp4242
S'Payel51.jpg'
p4243
ag3771
aa(lp4244
S'Payel52.jpg'
p4245
ag3771
aa(lp4246
S'Payel53.jpg'
p4247
ag3771
aa(lp4248
S'Payel54.jpg'
p4249
ag3771
aa(lp4250
S'Payel55.jpg'
p4251
ag3771
aa(lp4252
S'Payel56.jpg'
p4253
ag3771
aa(lp4254
S'Payel57.jpg'
p4255
ag3771
aa(lp4256
S'Payel58.jpg'
p4257
ag3771
aa(lp4258
S'Payel59.jpg'
p4259
ag3771
aa(lp4260
S'Payel60.jpg'
p4261
ag3771
aa(lp4262
S'Payel61.jpg'
p4263
ag3771
aa(lp4264
S'Payel62.jpg'
p4265
ag3771
aa(lp4266
S'Payel63.jpg'
p4267
ag3771
aa(lp4268
S'Payel64.jpg'
p4269
ag3771
aa(lp4270
S'Payel65.jpg'
p4271
ag3771
aa(lp4272
S'Payel66.jpg'
p4273
ag3771
aa(lp4274
S'Payel67.jpg'
p4275
ag3771
aa(lp4276
S'Payel68.jpg'
p4277
ag3771
aa(lp4278
S'Payel69.jpg'
p4279
ag3771
aa(lp4280
S'Payel70.jpg'
p4281
ag3771
aa(lp4282
S'Payel71.jpg'
p4283
ag3771
aa(lp4284
S'Payel72.jpg'
p4285
ag3771
aa(lp4286
S'Payel73.jpg'
p4287
ag3771
aa(lp4288
S'Payel74.jpg'
p4289
ag3771
aa(lp4290
S'Payel75.jpg'
p4291
ag3771
aa(lp4292
S'Payel76.jpg'
p4293
ag3771
aa(lp4294
S'Payel77.jpg'
p4295
ag3771
aa(lp4296
S'Payel78.jpg'
p4297
ag3771
aa(lp4298
S'Payel79.jpg'
p4299
ag3771
aa(lp4300
S'Payel80.jpg'
p4301
ag3771
aa(lp4302
S'Payel81.jpg'
p4303
ag3771
aa(lp4304
S'Payel82.jpg'
p4305
ag3771
aa(lp4306
S'Payel83.jpg'
p4307
ag3771
aa(lp4308
S'Payel84.jpg'
p4309
ag3771
aa(lp4310
S'Payel85.jpg'
p4311
ag3771
aa(lp4312
S'Payel86.jpg'
p4313
ag3771
aa(lp4314
S'Payel87.jpg'
p4315
ag3771
aa(lp4316
S'Payel88.jpg'
p4317
ag3771
aa(lp4318
S'Payel89.jpg'
p4319
ag3771
aa(lp4320
S'Payel90.jpg'
p4321
ag3771
aa(lp4322
S'Payel91.jpg'
p4323
ag3771
aa(lp4324
S'Payel92.jpg'
p4325
ag3771
aa(lp4326
S'Payel93.jpg'
p4327
ag3771
aa(lp4328
S'Payel94.jpg'
p4329
ag3771
aa(lp4330
S'Payel95.jpg'
p4331
ag3771
aa(lp4332
S'Payel96.jpg'
p4333
ag3771
aa(lp4334
S'Payel97.jpg'
p4335
ag3771
aa(lp4336
S'Payel98.jpg'
p4337
ag3771
aa(lp4338
S'Payel99.jpg'
p4339
ag3771
aa(lp4340
S'PTwo1.jpg'
p4341
ag3771
aa(lp4342
S'PTwo10.jpg'
p4343
ag3771
aa(lp4344
S'PTwo11.jpg'
p4345
ag3771
aa(lp4346
S'PTwo12.jpg'
p4347
ag3771
aa(lp4348
S'PTwo13.jpg'
p4349
ag3771
aa(lp4350
S'PTwo14.jpg'
p4351
ag3771
aa(lp4352
S'PTwo15.jpg'
p4353
ag3771
aa(lp4354
S'PTwo16.jpg'
p4355
ag3771
aa(lp4356
S'PTwo17.jpg'
p4357
ag3771
aa(lp4358
S'PTwo18.jpg'
p4359
ag3771
aa(lp4360
S'PTwo19.jpg'
p4361
ag3771
aa(lp4362
S'PTwo2.jpg'
p4363
ag3771
aa(lp4364
S'PTwo20.jpg'
p4365
ag3771
aa(lp4366
S'PTwo21.jpg'
p4367
ag3771
aa(lp4368
S'PTwo22.jpg'
p4369
ag3771
aa(lp4370
S'PTwo23.jpg'
p4371
ag3771
aa(lp4372
S'PTwo24.jpg'
p4373
ag3771
aa(lp4374
S'PTwo25.jpg'
p4375
ag3771
aa(lp4376
S'PTwo26.jpg'
p4377
ag3771
aa(lp4378
S'PTwo27.jpg'
p4379
ag3771
aa(lp4380
S'PTwo28.jpg'
p4381
ag3771
aa(lp4382
S'PTwo29.jpg'
p4383
ag3771
aa(lp4384
S'PTwo3.jpg'
p4385
ag3771
aa(lp4386
S'PTwo30.jpg'
p4387
ag3771
aa(lp4388
S'PTwo31.jpg'
p4389
ag3771
aa(lp4390
S'PTwo32.jpg'
p4391
ag3771
aa(lp4392
S'PTwo33.jpg'
p4393
ag3771
aa(lp4394
S'PTwo34.jpg'
p4395
ag3771
aa(lp4396
S'PTwo35.jpg'
p4397
ag3771
aa(lp4398
S'PTwo36.jpg'
p4399
ag3771
aa(lp4400
S'PTwo37.jpg'
p4401
ag3771
aa(lp4402
S'PTwo38.jpg'
p4403
ag3771
aa(lp4404
S'PTwo39.jpg'
p4405
ag3771
aa(lp4406
S'PTwo4.jpg'
p4407
ag3771
aa(lp4408
S'PTwo40.jpg'
p4409
ag3771
aa(lp4410
S'PTwo41.jpg'
p4411
ag3771
aa(lp4412
S'PTwo42.jpg'
p4413
ag3771
aa(lp4414
S'PTwo43.jpg'
p4415
ag3771
aa(lp4416
S'PTwo44.jpg'
p4417
ag3771
aa(lp4418
S'PTwo45.jpg'
p4419
ag3771
aa(lp4420
S'PTwo46.jpg'
p4421
ag3771
aa(lp4422
S'PTwo47.jpg'
p4423
ag3771
aa(lp4424
S'PTwo48.jpg'
p4425
ag3771
aa(lp4426
S'PTwo49.jpg'
p4427
ag3771
aa(lp4428
S'PTwo5.jpg'
p4429
ag3771
aa(lp4430
S'PTwo50.jpg'
p4431
ag3771
aa(lp4432
S'PTwo51.jpg'
p4433
ag3771
aa(lp4434
S'PTwo52.jpg'
p4435
ag3771
aa(lp4436
S'PTwo53.jpg'
p4437
ag3771
aa(lp4438
S'PTwo54.jpg'
p4439
ag3771
aa(lp4440
S'PTwo55.jpg'
p4441
ag3771
aa(lp4442
S'PTwo56.jpg'
p4443
ag3771
aa(lp4444
S'PTwo57.jpg'
p4445
ag3771
aa(lp4446
S'PTwo58.jpg'
p4447
ag3771
aa(lp4448
S'PTwo59.jpg'
p4449
ag3771
aa(lp4450
S'PTwo6.jpg'
p4451
ag3771
aa(lp4452
S'PTwo60.jpg'
p4453
ag3771
aa(lp4454
S'PTwo61.jpg'
p4455
ag3771
aa(lp4456
S'PTwo62.jpg'
p4457
ag3771
aa(lp4458
S'PTwo63.jpg'
p4459
ag3771
aa(lp4460
S'PTwo64.jpg'
p4461
ag3771
aa(lp4462
S'PTwo65.jpg'
p4463
ag3771
aa(lp4464
S'PTwo66.jpg'
p4465
ag3771
aa(lp4466
S'PTwo67.jpg'
p4467
ag3771
aa(lp4468
S'PTwo68.jpg'
p4469
ag3771
aa(lp4470
S'PTwo7.jpg'
p4471
ag3771
aa(lp4472
S'PTwo8.jpg'
p4473
ag3771
aa(lp4474
S'PTwo9.jpg'
p4475
ag3771
aa(lp4476
S'S File1.jpg'
p4477
ag3771
aa(lp4478
S'S File10.jpg'
p4479
ag3771
aa(lp4480
S'S File11.jpg'
p4481
ag3771
aa(lp4482
S'S File12.jpg'
p4483
ag3771
aa(lp4484
S'S File13.jpg'
p4485
ag3771
aa(lp4486
S'S File14.jpg'
p4487
ag3771
aa(lp4488
S'S File15.jpg'
p4489
ag3771
aa(lp4490
S'S File16.jpg'
p4491
ag3771
aa(lp4492
S'S File17.jpg'
p4493
ag3771
aa(lp4494
S'S File18.jpg'
p4495
ag3771
aa(lp4496
S'S File19.jpg'
p4497
ag3771
aa(lp4498
S'S File2.jpg'
p4499
ag3771
aa(lp4500
S'S File20.jpg'
p4501
ag3771
aa(lp4502
S'S File21.jpg'
p4503
ag3771
aa(lp4504
S'S File22.jpg'
p4505
ag3771
aa(lp4506
S'S File23.jpg'
p4507
ag3771
aa(lp4508
S'S File24.jpg'
p4509
ag3771
aa(lp4510
S'S File25.jpg'
p4511
ag3771
aa(lp4512
S'S File26.jpg'
p4513
ag3771
aa(lp4514
S'S File27.jpg'
p4515
ag3771
aa(lp4516
S'S File28.jpg'
p4517
ag3771
aa(lp4518
S'S File29.jpg'
p4519
ag3771
aa(lp4520
S'S File3.jpg'
p4521
ag3771
aa(lp4522
S'S File30.jpg'
p4523
ag3771
aa(lp4524
S'S File4.jpg'
p4525
ag3771
aa(lp4526
S'S File5.jpg'
p4527
ag3771
aa(lp4528
S'S File6.jpg'
p4529
ag3771
aa(lp4530
S'S File7.jpg'
p4531
ag3771
aa(lp4532
S'S File8.jpg'
p4533
ag3771
aa(lp4534
S'S File9.jpg'
p4535
ag3771
aa(lp4536
S'SSec1.jpg'
p4537
ag3771
aa(lp4538
S'SSec10.jpg'
p4539
ag3771
aa(lp4540
S'SSec11.jpg'
p4541
ag3771
aa(lp4542
S'SSec12.jpg'
p4543
ag3771
aa(lp4544
S'SSec13.jpg'
p4545
ag3771
aa(lp4546
S'SSec14.jpg'
p4547
ag3771
aa(lp4548
S'SSec15.jpg'
p4549
ag3771
aa(lp4550
S'SSec16.jpg'
p4551
ag3771
aa(lp4552
S'SSec17.jpg'
p4553
ag3771
aa(lp4554
S'SSec18.jpg'
p4555
ag3771
aa(lp4556
S'SSec19.jpg'
p4557
ag3771
aa(lp4558
S'SSec2.jpg'
p4559
ag3771
aa(lp4560
S'SSec20.jpg'
p4561
ag3771
aa(lp4562
S'SSec21.jpg'
p4563
ag3771
aa(lp4564
S'SSec22.jpg'
p4565
ag3771
aa(lp4566
S'SSec23.jpg'
p4567
ag3771
aa(lp4568
S'SSec24.jpg'
p4569
ag3771
aa(lp4570
S'SSec25.jpg'
p4571
ag3771
aa(lp4572
S'SSec26.jpg'
p4573
ag3771
aa(lp4574
S'SSec27.jpg'
p4575
ag3771
aa(lp4576
S'SSec28.jpg'
p4577
ag3771
aa(lp4578
S'SSec29.jpg'
p4579
ag3771
aa(lp4580
S'SSec3.jpg'
p4581
ag3771
aa(lp4582
S'SSec30.jpg'
p4583
ag3771
aa(lp4584
S'SSec31.jpg'
p4585
ag3771
aa(lp4586
S'SSec32.jpg'
p4587
ag3771
aa(lp4588
S'SSec33.jpg'
p4589
ag3771
aa(lp4590
S'SSec34.jpg'
p4591
ag3771
aa(lp4592
S'SSec35.jpg'
p4593
ag3771
aa(lp4594
S'SSec36.jpg'
p4595
ag3771
aa(lp4596
S'SSec37.jpg'
p4597
ag3771
aa(lp4598
S'SSec38.jpg'
p4599
ag3771
aa(lp4600
S'SSec39.jpg'
p4601
ag3771
aa(lp4602
S'SSec4.jpg'
p4603
ag3771
aa(lp4604
S'SSec40.jpg'
p4605
ag3771
aa(lp4606
S'SSec41.jpg'
p4607
ag3771
aa(lp4608
S'SSec42.jpg'
p4609
ag3771
aa(lp4610
S'SSec43.jpg'
p4611
ag3771
aa(lp4612
S'SSec44.jpg'
p4613
ag3771
aa(lp4614
S'SSec45.jpg'
p4615
ag3771
aa(lp4616
S'SSec46.jpg'
p4617
ag3771
aa(lp4618
S'SSec47.jpg'
p4619
ag3771
aa(lp4620
S'SSec48.jpg'
p4621
ag3771
aa(lp4622
S'SSec49.jpg'
p4623
ag3771
aa(lp4624
S'SSec5.jpg'
p4625
ag3771
aa(lp4626
S'SSec50.jpg'
p4627
ag3771
aa(lp4628
S'SSec51.jpg'
p4629
ag3771
aa(lp4630
S'SSec52.jpg'
p4631
ag3771
aa(lp4632
S'SSec53.jpg'
p4633
ag3771
aa(lp4634
S'SSec54.jpg'
p4635
ag3771
aa(lp4636
S'SSec55.jpg'
p4637
ag3771
aa(lp4638
S'SSec56.jpg'
p4639
ag3771
aa(lp4640
S'SSec57.jpg'
p4641
ag3771
aa(lp4642
S'SSec58.jpg'
p4643
ag3771
aa(lp4644
S'SSec59.jpg'
p4645
ag3771
aa(lp4646
S'SSec6.jpg'
p4647
ag3771
aa(lp4648
S'SSec60.jpg'
p4649
ag3771
aa(lp4650
S'SSec61.jpg'
p4651
ag3771
aa(lp4652
S'SSec62.jpg'
p4653
ag3771
aa(lp4654
S'SSec63.jpg'
p4655
ag3771
aa(lp4656
S'SSec64.jpg'
p4657
ag3771
aa(lp4658
S'SSec65.jpg'
p4659
ag3771
aa(lp4660
S'SSec66.jpg'
p4661
ag3771
aa(lp4662
S'SSec67.jpg'
p4663
ag3771
aa(lp4664
S'SSec7.jpg'
p4665
ag3771
aa(lp4666
S'SSec8.jpg'
p4667
ag3771
aa(lp4668
S'SSec9.jpg'
p4669
ag3771
aa(lp4670
S'ThreeFile16.jpg'
p4671
ag3771
aa(lp4672
S'ThreeFile17.jpg'
p4673
ag3771
aa(lp4674
S'ThreeFile18.jpg'
p4675
ag3771
aa(lp4676
S'ThreeFile19.jpg'
p4677
ag3771
aa(lp4678
S'ThreeFile20.jpg'
p4679
ag3771
aa(lp4680
S'ThreeFile21.jpg'
p4681
ag3771
aa(lp4682
S'ThreeFile22.jpg'
p4683
ag3771
aa(lp4684
S'ThreeFile23.jpg'
p4685
ag3771
aa(lp4686
S'ThreeFile24.jpg'
p4687
ag3771
aa(lp4688
S'ThreeFile25.jpg'
p4689
ag3771
aa(lp4690
S'ThreeFile26.jpg'
p4691
ag3771
aa(lp4692
S'ThreeFile27.jpg'
p4693
ag3771
aa(lp4694
S'ThreeFile28.jpg'
p4695
ag3771
aa(lp4696
S'ThreeFile29.jpg'
p4697
ag3771
aa(lp4698
S'ThreeFile30.jpg'
p4699
ag3771
aa(lp4700
S'ThreeFile31.jpg'
p4701
ag3771
aa(lp4702
S'ThreeFile32.jpg'
p4703
ag3771
aa(lp4704
S'ThreeFile33.jpg'
p4705
ag3771
aa(lp4706
S'ThreeFile34.jpg'
p4707
ag3771
aa(lp4708
S'ThreeFile35.jpg'
p4709
ag3771
aa(lp4710
S'ThreeFile36.jpg'
p4711
ag3771
aa(lp4712
S'ThreeFile37.jpg'
p4713
ag3771
aa(lp4714
S'ThreeFile38.jpg'
p4715
ag3771
aa(lp4716
S'ThreeFile39.jpg'
p4717
ag3771
aa(lp4718
S'ThreeFile40.jpg'
p4719
ag3771
aa(lp4720
S'ThreeFile41.jpg'
p4721
ag3771
aa(lp4722
S'ThreeFile42.jpg'
p4723
ag3771
aa(lp4724
S'ThreeFile43.jpg'
p4725
ag3771
aa(lp4726
S'ThreeFile44.jpg'
p4727
ag3771
aa(lp4728
S'TwoFile16.jpg'
p4729
ag3771
aa(lp4730
S'TwoFile17.jpg'
p4731
ag3771
aa(lp4732
S'TwoFile18.jpg'
p4733
ag3771
aa(lp4734
S'TwoFile19.jpg'
p4735
ag3771
aa(lp4736
S'TwoFile20.jpg'
p4737
ag3771
aa(lp4738
S'TwoFile21.jpg'
p4739
ag3771
aa(lp4740
S'TwoFile22.jpg'
p4741
ag3771
aa(lp4742
S'TwoFile23.jpg'
p4743
ag3771
aa(lp4744
S'TwoFile24.jpg'
p4745
ag3771
aa(lp4746
S'TwoFile25.jpg'
p4747
ag3771
aa(lp4748
S'TwoFile26.jpg'
p4749
ag3771
aa(lp4750
S'TwoFile27.jpg'
p4751
ag3771
aa(lp4752
S'TwoFile28.jpg'
p4753
ag3771
aa(lp4754
S'TwoFile29.jpg'
p4755
ag3771
aa(lp4756
S'TwoFile30.jpg'
p4757
ag3771
aa(lp4758
S'TwoFile31.jpg'
p4759
ag3771
aa(lp4760
S'TwoFile32.jpg'
p4761
ag3771
aa(lp4762
S'TwoFile33.jpg'
p4763
ag3771
aa(lp4764
S'TwoFile34.jpg'
p4765
ag3771
aa(lp4766
S'TwoFile35.jpg'
p4767
ag3771
aa(lp4768
S'TwoFile36.jpg'
p4769
ag3771
aa(lp4770
S'TwoFile37.jpg'
p4771
ag3771
aa(lp4772
S'TwoFile38.jpg'
p4773
ag3771
aa(lp4774
S'TwoFile39.jpg'
p4775
ag3771
aa(lp4776
S'TwoFile40.jpg'
p4777
ag3771
aa(lp4778
S'TwoFile41.jpg'
p4779
ag3771
aa(lp4780
S'TwoFile42.jpg'
p4781
ag3771
aa(lp4782
S'TwoFile43.jpg'
p4783
ag3771
aa(lp4784
S'TwoFile44.jpg'
p4785
ag3771
aa(lp4786
S'TwoFile45.jpg'
p4787
ag3771
aa(lp4788
S'TwoFile46.jpg'
p4789
ag3771
aa(lp4790
S'frame23.jpg'
p4791
aS'have to'
p4792
aa(lp4793
S'frame24.jpg'
p4794
ag4792
aa(lp4795
S'frame25.jpg'
p4796
ag4792
aa(lp4797
S'frame26.jpg'
p4798
ag4792
aa(lp4799
S'frame27.jpg'
p4800
ag4792
aa(lp4801
S'frame28.jpg'
p4802
ag4792
aa(lp4803
S'frame29.jpg'
p4804
ag4792
aa(lp4805
S'frame30.jpg'
p4806
ag4792
aa(lp4807
S'frame31.jpg'
p4808
ag4792
aa(lp4809
S'frame32.jpg'
p4810
ag4792
aa(lp4811
S'frame33.jpg'
p4812
ag4792
aa(lp4813
S'frame34.jpg'
p4814
ag4792
aa(lp4815
S'frame35.jpg'
p4816
ag4792
aa(lp4817
S'frame36.jpg'
p4818
ag4792
aa(lp4819
S'frame37.jpg'
p4820
ag4792
aa(lp4821
S'N File1.jpg'
p4822
ag4792
aa(lp4823
S'N File10.jpg'
p4824
ag4792
aa(lp4825
S'N File11.jpg'
p4826
ag4792
aa(lp4827
S'N File12.jpg'
p4828
ag4792
aa(lp4829
S'N File13.jpg'
p4830
ag4792
aa(lp4831
S'N File14.jpg'
p4832
ag4792
aa(lp4833
S'N File15.jpg'
p4834
ag4792
aa(lp4835
S'N File16.jpg'
p4836
ag4792
aa(lp4837
S'N File17.jpg'
p4838
ag4792
aa(lp4839
S'N File18.jpg'
p4840
ag4792
aa(lp4841
S'N File19.jpg'
p4842
ag4792
aa(lp4843
S'N File2.jpg'
p4844
ag4792
aa(lp4845
S'N File20.jpg'
p4846
ag4792
aa(lp4847
S'N File21.jpg'
p4848
ag4792
aa(lp4849
S'N File22.jpg'
p4850
ag4792
aa(lp4851
S'N File23.jpg'
p4852
ag4792
aa(lp4853
S'N File3.jpg'
p4854
ag4792
aa(lp4855
S'N File4.jpg'
p4856
ag4792
aa(lp4857
S'N File5.jpg'
p4858
ag4792
aa(lp4859
S'N File6.jpg'
p4860
ag4792
aa(lp4861
S'N File7.jpg'
p4862
ag4792
aa(lp4863
S'N File8.jpg'
p4864
ag4792
aa(lp4865
S'N File9.jpg'
p4866
ag4792
aa(lp4867
S'Ni File1.jpg'
p4868
ag4792
aa(lp4869
S'Ni File10.jpg'
p4870
ag4792
aa(lp4871
S'Ni File11.jpg'
p4872
ag4792
aa(lp4873
S'Ni File12.jpg'
p4874
ag4792
aa(lp4875
S'Ni File13.jpg'
p4876
ag4792
aa(lp4877
S'Ni File14.jpg'
p4878
ag4792
aa(lp4879
S'Ni File2.jpg'
p4880
ag4792
aa(lp4881
S'Ni File3.jpg'
p4882
ag4792
aa(lp4883
S'Ni File4.jpg'
p4884
ag4792
aa(lp4885
S'Ni File5.jpg'
p4886
ag4792
aa(lp4887
S'Ni File6.jpg'
p4888
ag4792
aa(lp4889
S'Ni File7.jpg'
p4890
ag4792
aa(lp4891
S'Ni File8.jpg'
p4892
ag4792
aa(lp4893
S'Ni File9.jpg'
p4894
ag4792
aa(lp4895
S'OneFile14.jpg'
p4896
ag4792
aa(lp4897
S'OneFile15.jpg'
p4898
ag4792
aa(lp4899
S'OneFile16.jpg'
p4900
ag4792
aa(lp4901
S'OneFile17.jpg'
p4902
ag4792
aa(lp4903
S'OneFile18.jpg'
p4904
ag4792
aa(lp4905
S'OneFile19.jpg'
p4906
ag4792
aa(lp4907
S'OneFile20.jpg'
p4908
ag4792
aa(lp4909
S'OneFile21.jpg'
p4910
ag4792
aa(lp4911
S'OneFile22.jpg'
p4912
ag4792
aa(lp4913
S'OneFile23.jpg'
p4914
ag4792
aa(lp4915
S'OneFile24.jpg'
p4916
ag4792
aa(lp4917
S'OneFile25.jpg'
p4918
ag4792
aa(lp4919
S'OneFile26.jpg'
p4920
ag4792
aa(lp4921
S'OneFile27.jpg'
p4922
ag4792
aa(lp4923
S'OneFile28.jpg'
p4924
ag4792
aa(lp4925
S'OneFile29.jpg'
p4926
ag4792
aa(lp4927
S'OneFile30.jpg'
p4928
ag4792
aa(lp4929
S'OneFile31.jpg'
p4930
ag4792
aa(lp4931
S'OneFile32.jpg'
p4932
ag4792
aa(lp4933
S'OneFile33.jpg'
p4934
ag4792
aa(lp4935
S'OneFile34.jpg'
p4936
ag4792
aa(lp4937
S'OneFile35.jpg'
p4938
ag4792
aa(lp4939
S'OneFile36.jpg'
p4940
ag4792
aa(lp4941
S'OneFile37.jpg'
p4942
ag4792
aa(lp4943
S'OneFile38.jpg'
p4944
ag4792
aa(lp4945
S'P File1.jpg'
p4946
ag4792
aa(lp4947
S'P File10.jpg'
p4948
ag4792
aa(lp4949
S'P File11.jpg'
p4950
ag4792
aa(lp4951
S'P File12.jpg'
p4952
ag4792
aa(lp4953
S'P File13.jpg'
p4954
ag4792
aa(lp4955
S'P File14.jpg'
p4956
ag4792
aa(lp4957
S'P File15.jpg'
p4958
ag4792
aa(lp4959
S'P File2.jpg'
p4960
ag4792
aa(lp4961
S'P File3.jpg'
p4962
ag4792
aa(lp4963
S'P File4.jpg'
p4964
ag4792
aa(lp4965
S'P File5.jpg'
p4966
ag4792
aa(lp4967
S'P File6.jpg'
p4968
ag4792
aa(lp4969
S'P File7.jpg'
p4970
ag4792
aa(lp4971
S'P File8.jpg'
p4972
ag4792
aa(lp4973
S'P File9.jpg'
p4974
ag4792
aa(lp4975
S'PavOne0.jpg'
p4976
ag4792
aa(lp4977
S'PavOne1.jpg'
p4978
ag4792
aa(lp4979
S'PavOne10.jpg'
p4980
ag4792
aa(lp4981
S'PavOne11.jpg'
p4982
ag4792
aa(lp4983
S'PavOne12.jpg'
p4984
ag4792
aa(lp4985
S'PavOne13.jpg'
p4986
ag4792
aa(lp4987
S'PavOne14.jpg'
p4988
ag4792
aa(lp4989
S'PavOne15.jpg'
p4990
ag4792
aa(lp4991
S'PavOne2.jpg'
p4992
ag4792
aa(lp4993
S'PavOne3.jpg'
p4994
ag4792
aa(lp4995
S'PavOne4.jpg'
p4996
ag4792
aa(lp4997
S'PavOne5.jpg'
p4998
ag4792
aa(lp4999
S'PavOne6.jpg'
p5000
ag4792
aa(lp5001
S'PavOne7.jpg'
p5002
ag4792
aa(lp5003
S'PavOne8.jpg'
p5004
ag4792
aa(lp5005
S'PavOne9.jpg'
p5006
ag4792
aa(lp5007
S'PavThree0.jpg'
p5008
ag4792
aa(lp5009
S'PavThree1.jpg'
p5010
ag4792
aa(lp5011
S'PavThree10.jpg'
p5012
ag4792
aa(lp5013
S'PavThree11.jpg'
p5014
ag4792
aa(lp5015
S'PavThree12.jpg'
p5016
ag4792
aa(lp5017
S'PavThree13.jpg'
p5018
ag4792
aa(lp5019
S'PavThree14.jpg'
p5020
ag4792
aa(lp5021
S'PavThree15.jpg'
p5022
ag4792
aa(lp5023
S'PavThree16.jpg'
p5024
ag4792
aa(lp5025
S'PavThree17.jpg'
p5026
ag4792
aa(lp5027
S'PavThree18.jpg'
p5028
ag4792
aa(lp5029
S'PavThree19.jpg'
p5030
ag4792
aa(lp5031
S'PavThree2.jpg'
p5032
ag4792
aa(lp5033
S'PavThree20.jpg'
p5034
ag4792
aa(lp5035
S'PavThree21.jpg'
p5036
ag4792
aa(lp5037
S'PavThree22.jpg'
p5038
ag4792
aa(lp5039
S'PavThree23.jpg'
p5040
ag4792
aa(lp5041
S'PavThree24.jpg'
p5042
ag4792
aa(lp5043
S'PavThree3.jpg'
p5044
ag4792
aa(lp5045
S'PavThree4.jpg'
p5046
ag4792
aa(lp5047
S'PavThree5.jpg'
p5048
ag4792
aa(lp5049
S'PavThree6.jpg'
p5050
ag4792
aa(lp5051
S'PavThree7.jpg'
p5052
ag4792
aa(lp5053
S'PavThree8.jpg'
p5054
ag4792
aa(lp5055
S'PavThree9.jpg'
p5056
ag4792
aa(lp5057
S'PavTwo0.jpg'
p5058
ag4792
aa(lp5059
S'PavTwo1.jpg'
p5060
ag4792
aa(lp5061
S'PavTwo10.jpg'
p5062
ag4792
aa(lp5063
S'PavTwo11.jpg'
p5064
ag4792
aa(lp5065
S'PavTwo12.jpg'
p5066
ag4792
aa(lp5067
S'PavTwo13.jpg'
p5068
ag4792
aa(lp5069
S'PavTwo14.jpg'
p5070
ag4792
aa(lp5071
S'PavTwo15.jpg'
p5072
ag4792
aa(lp5073
S'PavTwo16.jpg'
p5074
ag4792
aa(lp5075
S'PavTwo17.jpg'
p5076
ag4792
aa(lp5077
S'PavTwo18.jpg'
p5078
ag4792
aa(lp5079
S'PavTwo19.jpg'
p5080
ag4792
aa(lp5081
S'PavTwo2.jpg'
p5082
ag4792
aa(lp5083
S'PavTwo20.jpg'
p5084
ag4792
aa(lp5085
S'PavTwo3.jpg'
p5086
ag4792
aa(lp5087
S'PavTwo4.jpg'
p5088
ag4792
aa(lp5089
S'PavTwo5.jpg'
p5090
ag4792
aa(lp5091
S'PavTwo6.jpg'
p5092
ag4792
aa(lp5093
S'PavTwo7.jpg'
p5094
ag4792
aa(lp5095
S'PavTwo8.jpg'
p5096
ag4792
aa(lp5097
S'PavTwo9.jpg'
p5098
ag4792
aa(lp5099
S'Payel1.jpg'
p5100
ag4792
aa(lp5101
S'Payel10.jpg'
p5102
ag4792
aa(lp5103
S'Payel11.jpg'
p5104
ag4792
aa(lp5105
S'Payel12.jpg'
p5106
ag4792
aa(lp5107
S'Payel13.jpg'
p5108
ag4792
aa(lp5109
S'Payel14.jpg'
p5110
ag4792
aa(lp5111
S'Payel15.jpg'
p5112
ag4792
aa(lp5113
S'Payel16.jpg'
p5114
ag4792
aa(lp5115
S'Payel17.jpg'
p5116
ag4792
aa(lp5117
S'Payel18.jpg'
p5118
ag4792
aa(lp5119
S'Payel19.jpg'
p5120
ag4792
aa(lp5121
S'Payel2.jpg'
p5122
ag4792
aa(lp5123
S'Payel20.jpg'
p5124
ag4792
aa(lp5125
S'Payel21.jpg'
p5126
ag4792
aa(lp5127
S'Payel22.jpg'
p5128
ag4792
aa(lp5129
S'Payel23.jpg'
p5130
ag4792
aa(lp5131
S'Payel24.jpg'
p5132
ag4792
aa(lp5133
S'Payel3.jpg'
p5134
ag4792
aa(lp5135
S'Payel30.jpg'
p5136
ag4792
aa(lp5137
S'Payel31.jpg'
p5138
ag4792
aa(lp5139
S'Payel32.jpg'
p5140
ag4792
aa(lp5141
S'Payel33.jpg'
p5142
ag4792
aa(lp5143
S'Payel34.jpg'
p5144
ag4792
aa(lp5145
S'Payel35.jpg'
p5146
ag4792
aa(lp5147
S'Payel36.jpg'
p5148
ag4792
aa(lp5149
S'Payel37.jpg'
p5150
ag4792
aa(lp5151
S'Payel38.jpg'
p5152
ag4792
aa(lp5153
S'Payel39.jpg'
p5154
ag4792
aa(lp5155
S'Payel4.jpg'
p5156
ag4792
aa(lp5157
S'Payel40.jpg'
p5158
ag4792
aa(lp5159
S'Payel41.jpg'
p5160
ag4792
aa(lp5161
S'Payel42.jpg'
p5162
ag4792
aa(lp5163
S'Payel43.jpg'
p5164
ag4792
aa(lp5165
S'Payel44.jpg'
p5166
ag4792
aa(lp5167
S'Payel5.jpg'
p5168
ag4792
aa(lp5169
S'Payel52.jpg'
p5170
ag4792
aa(lp5171
S'Payel53.jpg'
p5172
ag4792
aa(lp5173
S'Payel54.jpg'
p5174
ag4792
aa(lp5175
S'Payel55.jpg'
p5176
ag4792
aa(lp5177
S'Payel56.jpg'
p5178
ag4792
aa(lp5179
S'Payel58.jpg'
p5180
ag4792
aa(lp5181
S'Payel59.jpg'
p5182
ag4792
aa(lp5183
S'Payel6.jpg'
p5184
ag4792
aa(lp5185
S'Payel60.jpg'
p5186
ag4792
aa(lp5187
S'Payel61.jpg'
p5188
ag4792
aa(lp5189
S'Payel62.jpg'
p5190
ag4792
aa(lp5191
S'Payel63.jpg'
p5192
ag4792
aa(lp5193
S'Payel64.jpg'
p5194
ag4792
aa(lp5195
S'Payel65.jpg'
p5196
ag4792
aa(lp5197
S'Payel66.jpg'
p5198
ag4792
aa(lp5199
S'Payel67.jpg'
p5200
ag4792
aa(lp5201
S'Payel68.jpg'
p5202
ag4792
aa(lp5203
S'Payel69.jpg'
p5204
ag4792
aa(lp5205
S'Payel7.jpg'
p5206
ag4792
aa(lp5207
S'Payel70.jpg'
p5208
ag4792
aa(lp5209
S'Payel71.jpg'
p5210
ag4792
aa(lp5211
S'Payel8.jpg'
p5212
ag4792
aa(lp5213
S'Payel9.jpg'
p5214
ag4792
aa(lp5215
S'PTwo1.jpg'
p5216
ag4792
aa(lp5217
S'PTwo10.jpg'
p5218
ag4792
aa(lp5219
S'PTwo11.jpg'
p5220
ag4792
aa(lp5221
S'PTwo12.jpg'
p5222
ag4792
aa(lp5223
S'PTwo13.jpg'
p5224
ag4792
aa(lp5225
S'PTwo14.jpg'
p5226
ag4792
aa(lp5227
S'PTwo15.jpg'
p5228
ag4792
aa(lp5229
S'PTwo16.jpg'
p5230
ag4792
aa(lp5231
S'PTwo17.jpg'
p5232
ag4792
aa(lp5233
S'PTwo18.jpg'
p5234
ag4792
aa(lp5235
S'PTwo19.jpg'
p5236
ag4792
aa(lp5237
S'PTwo2.jpg'
p5238
ag4792
aa(lp5239
S'PTwo20.jpg'
p5240
ag4792
aa(lp5241
S'PTwo21.jpg'
p5242
ag4792
aa(lp5243
S'PTwo22.jpg'
p5244
ag4792
aa(lp5245
S'PTwo23.jpg'
p5246
ag4792
aa(lp5247
S'PTwo24.jpg'
p5248
ag4792
aa(lp5249
S'PTwo25.jpg'
p5250
ag4792
aa(lp5251
S'PTwo26.jpg'
p5252
ag4792
aa(lp5253
S'PTwo27.jpg'
p5254
ag4792
aa(lp5255
S'PTwo3.jpg'
p5256
ag4792
aa(lp5257
S'PTwo4.jpg'
p5258
ag4792
aa(lp5259
S'PTwo5.jpg'
p5260
ag4792
aa(lp5261
S'PTwo6.jpg'
p5262
ag4792
aa(lp5263
S'PTwo7.jpg'
p5264
ag4792
aa(lp5265
S'PTwo8.jpg'
p5266
ag4792
aa(lp5267
S'PTwo9.jpg'
p5268
ag4792
aa(lp5269
S'S File1.jpg'
p5270
ag4792
aa(lp5271
S'S File2.jpg'
p5272
ag4792
aa(lp5273
S'S File3.jpg'
p5274
ag4792
aa(lp5275
S'S File4.jpg'
p5276
ag4792
aa(lp5277
S'S File5.jpg'
p5278
ag4792
aa(lp5279
S'S File6.jpg'
p5280
ag4792
aa(lp5281
S'S File7.jpg'
p5282
ag4792
aa(lp5283
S'SSec1.jpg'
p5284
ag4792
aa(lp5285
S'SSec10.jpg'
p5286
ag4792
aa(lp5287
S'SSec11.jpg'
p5288
ag4792
aa(lp5289
S'SSec12.jpg'
p5290
ag4792
aa(lp5291
S'SSec13.jpg'
p5292
ag4792
aa(lp5293
S'SSec14.jpg'
p5294
ag4792
aa(lp5295
S'SSec15.jpg'
p5296
ag4792
aa(lp5297
S'SSec16.jpg'
p5298
ag4792
aa(lp5299
S'SSec17.jpg'
p5300
ag4792
aa(lp5301
S'SSec18.jpg'
p5302
ag4792
aa(lp5303
S'SSec19.jpg'
p5304
ag4792
aa(lp5305
S'SSec2.jpg'
p5306
ag4792
aa(lp5307
S'SSec20.jpg'
p5308
ag4792
aa(lp5309
S'SSec21.jpg'
p5310
ag4792
aa(lp5311
S'SSec22.jpg'
p5312
ag4792
aa(lp5313
S'SSec23.jpg'
p5314
ag4792
aa(lp5315
S'SSec24.jpg'
p5316
ag4792
aa(lp5317
S'SSec25.jpg'
p5318
ag4792
aa(lp5319
S'SSec26.jpg'
p5320
ag4792
aa(lp5321
S'SSec27.jpg'
p5322
ag4792
aa(lp5323
S'SSec28.jpg'
p5324
ag4792
aa(lp5325
S'SSec29.jpg'
p5326
ag4792
aa(lp5327
S'SSec3.jpg'
p5328
ag4792
aa(lp5329
S'SSec30.jpg'
p5330
ag4792
aa(lp5331
S'SSec31.jpg'
p5332
ag4792
aa(lp5333
S'SSec32.jpg'
p5334
ag4792
aa(lp5335
S'SSec33.jpg'
p5336
ag4792
aa(lp5337
S'SSec34.jpg'
p5338
ag4792
aa(lp5339
S'SSec35.jpg'
p5340
ag4792
aa(lp5341
S'SSec36.jpg'
p5342
ag4792
aa(lp5343
S'SSec37.jpg'
p5344
ag4792
aa(lp5345
S'SSec38.jpg'
p5346
ag4792
aa(lp5347
S'SSec39.jpg'
p5348
ag4792
aa(lp5349
S'SSec4.jpg'
p5350
ag4792
aa(lp5351
S'SSec40.jpg'
p5352
ag4792
aa(lp5353
S'SSec41.jpg'
p5354
ag4792
aa(lp5355
S'SSec42.jpg'
p5356
ag4792
aa(lp5357
S'SSec43.jpg'
p5358
ag4792
aa(lp5359
S'SSec44.jpg'
p5360
ag4792
aa(lp5361
S'SSec45.jpg'
p5362
ag4792
aa(lp5363
S'SSec46.jpg'
p5364
ag4792
aa(lp5365
S'SSec47.jpg'
p5366
ag4792
aa(lp5367
S'SSec48.jpg'
p5368
ag4792
aa(lp5369
S'SSec49.jpg'
p5370
ag4792
aa(lp5371
S'SSec5.jpg'
p5372
ag4792
aa(lp5373
S'SSec50.jpg'
p5374
ag4792
aa(lp5375
S'SSec51.jpg'
p5376
ag4792
aa(lp5377
S'SSec52.jpg'
p5378
ag4792
aa(lp5379
S'SSec53.jpg'
p5380
ag4792
aa(lp5381
S'SSec54.jpg'
p5382
ag4792
aa(lp5383
S'SSec55.jpg'
p5384
ag4792
aa(lp5385
S'SSec6.jpg'
p5386
ag4792
aa(lp5387
S'SSec7.jpg'
p5388
ag4792
aa(lp5389
S'SSec8.jpg'
p5390
ag4792
aa(lp5391
S'SSec9.jpg'
p5392
ag4792
aa(lp5393
S'ThreeFile67.jpg'
p5394
ag4792
aa(lp5395
S'ThreeFile68.jpg'
p5396
ag4792
aa(lp5397
S'ThreeFile69.jpg'
p5398
ag4792
aa(lp5399
S'ThreeFile70.jpg'
p5400
ag4792
aa(lp5401
S'ThreeFile71.jpg'
p5402
ag4792
aa(lp5403
S'ThreeFile72.jpg'
p5404
ag4792
aa(lp5405
S'ThreeFile73.jpg'
p5406
ag4792
aa(lp5407
S'ThreeFile74.jpg'
p5408
ag4792
aa(lp5409
S'ThreeFile75.jpg'
p5410
ag4792
aa(lp5411
S'ThreeFile76.jpg'
p5412
ag4792
aa(lp5413
S'ThreeFile77.jpg'
p5414
ag4792
aa(lp5415
S'ThreeFile78.jpg'
p5416
ag4792
aa(lp5417
S'ThreeFile79.jpg'
p5418
ag4792
aa(lp5419
S'ThreeFile80.jpg'
p5420
ag4792
aa(lp5421
S'ThreeFile81.jpg'
p5422
ag4792
aa(lp5423
S'ThreeFile82.jpg'
p5424
ag4792
aa(lp5425
S'ThreeFile83.jpg'
p5426
ag4792
aa(lp5427
S'ThreeFile84.jpg'
p5428
ag4792
aa(lp5429
S'ThreeFile85.jpg'
p5430
ag4792
aa(lp5431
S'ThreeFile86.jpg'
p5432
ag4792
aa(lp5433
S'ThreeFile87.jpg'
p5434
ag4792
aa(lp5435
S'ThreeFile88.jpg'
p5436
ag4792
aa(lp5437
S'TwoFile20.jpg'
p5438
ag4792
aa(lp5439
S'TwoFile21.jpg'
p5440
ag4792
aa(lp5441
S'TwoFile22.jpg'
p5442
ag4792
aa(lp5443
S'TwoFile23.jpg'
p5444
ag4792
aa(lp5445
S'TwoFile24.jpg'
p5446
ag4792
aa(lp5447
S'TwoFile25.jpg'
p5448
ag4792
aa(lp5449
S'TwoFile26.jpg'
p5450
ag4792
aa(lp5451
S'TwoFile27.jpg'
p5452
ag4792
aa(lp5453
S'TwoFile28.jpg'
p5454
ag4792
aa(lp5455
S'TwoFile29.jpg'
p5456
ag4792
aa(lp5457
S'TwoFile30.jpg'
p5458
ag4792
aa(lp5459
S'TwoFile31.jpg'
p5460
ag4792
aa(lp5461
S'TwoFile32.jpg'
p5462
ag4792
aa(lp5463
S'TwoFile33.jpg'
p5464
ag4792
aa(lp5465
S'TwoFile34.jpg'
p5466
ag4792
aa(lp5467
S'TwoFile35.jpg'
p5468
ag4792
aa(lp5469
S'TwoFile36.jpg'
p5470
ag4792
aa(lp5471
S'TwoFile37.jpg'
p5472
ag4792
aa(lp5473
S'TwoFile38.jpg'
p5474
ag4792
aa(lp5475
S'TwoFile39.jpg'
p5476
ag4792
aa(lp5477
S'Combined1.jpg'
p5478
aS'her his'
p5479
aa(lp5480
S'Combined10.jpg'
p5481
ag5479
aa(lp5482
S'Combined11.jpg'
p5483
ag5479
aa(lp5484
S'Combined12.jpg'
p5485
ag5479
aa(lp5486
S'Combined13.jpg'
p5487
ag5479
aa(lp5488
S'Combined14.jpg'
p5489
ag5479
aa(lp5490
S'Combined15.jpg'
p5491
ag5479
aa(lp5492
S'Combined16.jpg'
p5493
ag5479
aa(lp5494
S'Combined17.jpg'
p5495
ag5479
aa(lp5496
S'Combined18.jpg'
p5497
ag5479
aa(lp5498
S'Combined19.jpg'
p5499
ag5479
aa(lp5500
S'Combined2.jpg'
p5501
ag5479
aa(lp5502
S'Combined20.jpg'
p5503
ag5479
aa(lp5504
S'Combined21.jpg'
p5505
ag5479
aa(lp5506
S'Combined22.jpg'
p5507
ag5479
aa(lp5508
S'Combined23.jpg'
p5509
ag5479
aa(lp5510
S'Combined24.jpg'
p5511
ag5479
aa(lp5512
S'Combined25.jpg'
p5513
ag5479
aa(lp5514
S'Combined26.jpg'
p5515
ag5479
aa(lp5516
S'Combined27.jpg'
p5517
ag5479
aa(lp5518
S'Combined28.jpg'
p5519
ag5479
aa(lp5520
S'Combined29.jpg'
p5521
ag5479
aa(lp5522
S'Combined3.jpg'
p5523
ag5479
aa(lp5524
S'Combined30.jpg'
p5525
ag5479
aa(lp5526
S'Combined31.jpg'
p5527
ag5479
aa(lp5528
S'Combined32.jpg'
p5529
ag5479
aa(lp5530
S'Combined33.jpg'
p5531
ag5479
aa(lp5532
S'Combined34.jpg'
p5533
ag5479
aa(lp5534
S'Combined35.jpg'
p5535
ag5479
aa(lp5536
S'Combined36.jpg'
p5537
ag5479
aa(lp5538
S'Combined37.jpg'
p5539
ag5479
aa(lp5540
S'Combined38.jpg'
p5541
ag5479
aa(lp5542
S'Combined39.jpg'
p5543
ag5479
aa(lp5544
S'Combined4.jpg'
p5545
ag5479
aa(lp5546
S'Combined40.jpg'
p5547
ag5479
aa(lp5548
S'Combined41.jpg'
p5549
ag5479
aa(lp5550
S'Combined42.jpg'
p5551
ag5479
aa(lp5552
S'Combined43.jpg'
p5553
ag5479
aa(lp5554
S'Combined44.jpg'
p5555
ag5479
aa(lp5556
S'Combined45.jpg'
p5557
ag5479
aa(lp5558
S'Combined46.jpg'
p5559
ag5479
aa(lp5560
S'Combined47.jpg'
p5561
ag5479
aa(lp5562
S'Combined48.jpg'
p5563
ag5479
aa(lp5564
S'Combined49.jpg'
p5565
ag5479
aa(lp5566
S'Combined5.jpg'
p5567
ag5479
aa(lp5568
S'Combined50.jpg'
p5569
ag5479
aa(lp5570
S'Combined51.jpg'
p5571
ag5479
aa(lp5572
S'Combined52.jpg'
p5573
ag5479
aa(lp5574
S'Combined53.jpg'
p5575
ag5479
aa(lp5576
S'Combined54.jpg'
p5577
ag5479
aa(lp5578
S'Combined55.jpg'
p5579
ag5479
aa(lp5580
S'Combined56.jpg'
p5581
ag5479
aa(lp5582
S'Combined57.jpg'
p5583
ag5479
aa(lp5584
S'Combined58.jpg'
p5585
ag5479
aa(lp5586
S'Combined59.jpg'
p5587
ag5479
aa(lp5588
S'Combined6.jpg'
p5589
ag5479
aa(lp5590
S'Combined60.jpg'
p5591
ag5479
aa(lp5592
S'Combined61.jpg'
p5593
ag5479
aa(lp5594
S'Combined62.jpg'
p5595
ag5479
aa(lp5596
S'Combined63.jpg'
p5597
ag5479
aa(lp5598
S'Combined64.jpg'
p5599
ag5479
aa(lp5600
S'Combined65.jpg'
p5601
ag5479
aa(lp5602
S'Combined66.jpg'
p5603
ag5479
aa(lp5604
S'Combined67.jpg'
p5605
ag5479
aa(lp5606
S'Combined68.jpg'
p5607
ag5479
aa(lp5608
S'Combined69.jpg'
p5609
ag5479
aa(lp5610
S'Combined7.jpg'
p5611
ag5479
aa(lp5612
S'Combined70.jpg'
p5613
ag5479
aa(lp5614
S'Combined71.jpg'
p5615
ag5479
aa(lp5616
S'Combined72.jpg'
p5617
ag5479
aa(lp5618
S'Combined73.jpg'
p5619
ag5479
aa(lp5620
S'Combined74.jpg'
p5621
ag5479
aa(lp5622
S'Combined75.jpg'
p5623
ag5479
aa(lp5624
S'Combined76.jpg'
p5625
ag5479
aa(lp5626
S'Combined77.jpg'
p5627
ag5479
aa(lp5628
S'Combined78.jpg'
p5629
ag5479
aa(lp5630
S'Combined79.jpg'
p5631
ag5479
aa(lp5632
S'Combined8.jpg'
p5633
ag5479
aa(lp5634
S'Combined80.jpg'
p5635
ag5479
aa(lp5636
S'Combined9.jpg'
p5637
ag5479
aa(lp5638
S'FourFile (10).jpg'
p5639
ag5479
aa(lp5640
S'FourFile (11).jpg'
p5641
ag5479
aa(lp5642
S'FourFile (12).jpg'
p5643
ag5479
aa(lp5644
S'FourFile (13).jpg'
p5645
ag5479
aa(lp5646
S'FourFile (14).jpg'
p5647
ag5479
aa(lp5648
S'FourFile (5).jpg'
p5649
ag5479
aa(lp5650
S'FourFile (6).jpg'
p5651
ag5479
aa(lp5652
S'FourFile (7).jpg'
p5653
ag5479
aa(lp5654
S'FourFile (8).jpg'
p5655
ag5479
aa(lp5656
S'FourFile (9).jpg'
p5657
ag5479
aa(lp5658
S'frame0.jpg'
p5659
ag5479
aa(lp5660
S'frame1.jpg'
p5661
ag5479
aa(lp5662
S'frame10.jpg'
p5663
ag5479
aa(lp5664
S'frame11.jpg'
p5665
ag5479
aa(lp5666
S'frame12.jpg'
p5667
ag5479
aa(lp5668
S'frame13.jpg'
p5669
ag5479
aa(lp5670
S'frame14.jpg'
p5671
ag5479
aa(lp5672
S'frame15.jpg'
p5673
ag5479
aa(lp5674
S'frame16.jpg'
p5675
ag5479
aa(lp5676
S'frame17.jpg'
p5677
ag5479
aa(lp5678
S'frame18.jpg'
p5679
ag5479
aa(lp5680
S'frame19.jpg'
p5681
ag5479
aa(lp5682
S'frame2.jpg'
p5683
ag5479
aa(lp5684
S'frame20.jpg'
p5685
ag5479
aa(lp5686
S'frame21.jpg'
p5687
ag5479
aa(lp5688
S'frame22.jpg'
p5689
ag5479
aa(lp5690
S'frame23.jpg'
p5691
ag5479
aa(lp5692
S'frame24.jpg'
p5693
ag5479
aa(lp5694
S'frame3.jpg'
p5695
ag5479
aa(lp5696
S'frame4.jpg'
p5697
ag5479
aa(lp5698
S'frame5.jpg'
p5699
ag5479
aa(lp5700
S'frame6.jpg'
p5701
ag5479
aa(lp5702
S'frame7.jpg'
p5703
ag5479
aa(lp5704
S'frame8.jpg'
p5705
ag5479
aa(lp5706
S'frame9.jpg'
p5707
ag5479
aa(lp5708
S'PavOne0.jpg'
p5709
ag5479
aa(lp5710
S'PavOne1.jpg'
p5711
ag5479
aa(lp5712
S'PavOne10.jpg'
p5713
ag5479
aa(lp5714
S'PavOne11.jpg'
p5715
ag5479
aa(lp5716
S'PavOne12.jpg'
p5717
ag5479
aa(lp5718
S'PavOne13.jpg'
p5719
ag5479
aa(lp5720
S'PavOne14.jpg'
p5721
ag5479
aa(lp5722
S'PavOne15.jpg'
p5723
ag5479
aa(lp5724
S'PavOne16.jpg'
p5725
ag5479
aa(lp5726
S'PavOne2.jpg'
p5727
ag5479
aa(lp5728
S'PavOne3.jpg'
p5729
ag5479
aa(lp5730
S'PavOne4.jpg'
p5731
ag5479
aa(lp5732
S'PavOne5.jpg'
p5733
ag5479
aa(lp5734
S'PavOne6.jpg'
p5735
ag5479
aa(lp5736
S'PavOne7.jpg'
p5737
ag5479
aa(lp5738
S'PavOne8.jpg'
p5739
ag5479
aa(lp5740
S'PavOne9.jpg'
p5741
ag5479
aa(lp5742
S'PavThree0.jpg'
p5743
ag5479
aa(lp5744
S'PavThree1.jpg'
p5745
ag5479
aa(lp5746
S'PavThree10.jpg'
p5747
ag5479
aa(lp5748
S'PavThree11.jpg'
p5749
ag5479
aa(lp5750
S'PavThree12.jpg'
p5751
ag5479
aa(lp5752
S'PavThree13.jpg'
p5753
ag5479
aa(lp5754
S'PavThree14.jpg'
p5755
ag5479
aa(lp5756
S'PavThree15.jpg'
p5757
ag5479
aa(lp5758
S'PavThree16.jpg'
p5759
ag5479
aa(lp5760
S'PavThree17.jpg'
p5761
ag5479
aa(lp5762
S'PavThree18.jpg'
p5763
ag5479
aa(lp5764
S'PavThree19.jpg'
p5765
ag5479
aa(lp5766
S'PavThree2.jpg'
p5767
ag5479
aa(lp5768
S'PavThree20.jpg'
p5769
ag5479
aa(lp5770
S'PavThree21.jpg'
p5771
ag5479
aa(lp5772
S'PavThree22.jpg'
p5773
ag5479
aa(lp5774
S'PavThree23.jpg'
p5775
ag5479
aa(lp5776
S'PavThree24.jpg'
p5777
ag5479
aa(lp5778
S'PavThree25.jpg'
p5779
ag5479
aa(lp5780
S'PavThree26.jpg'
p5781
ag5479
aa(lp5782
S'PavThree3.jpg'
p5783
ag5479
aa(lp5784
S'PavThree4.jpg'
p5785
ag5479
aa(lp5786
S'PavThree5.jpg'
p5787
ag5479
aa(lp5788
S'PavThree6.jpg'
p5789
ag5479
aa(lp5790
S'PavThree7.jpg'
p5791
ag5479
aa(lp5792
S'PavThree8.jpg'
p5793
ag5479
aa(lp5794
S'PavThree9.jpg'
p5795
ag5479
aa(lp5796
S'PavTwo0.jpg'
p5797
ag5479
aa(lp5798
S'PavTwo1.jpg'
p5799
ag5479
aa(lp5800
S'PavTwo10.jpg'
p5801
ag5479
aa(lp5802
S'PavTwo11.jpg'
p5803
ag5479
aa(lp5804
S'PavTwo12.jpg'
p5805
ag5479
aa(lp5806
S'PavTwo2.jpg'
p5807
ag5479
aa(lp5808
S'PavTwo3.jpg'
p5809
ag5479
aa(lp5810
S'PavTwo4.jpg'
p5811
ag5479
aa(lp5812
S'PavTwo5.jpg'
p5813
ag5479
aa(lp5814
S'PavTwo6.jpg'
p5815
ag5479
aa(lp5816
S'PavTwo7.jpg'
p5817
ag5479
aa(lp5818
S'PavTwo8.jpg'
p5819
ag5479
aa(lp5820
S'PavTwo9.jpg'
p5821
ag5479
aa(lp5822
S'Payel1.jpg'
p5823
ag5479
aa(lp5824
S'Payel10.jpg'
p5825
ag5479
aa(lp5826
S'Payel11.jpg'
p5827
ag5479
aa(lp5828
S'Payel12.jpg'
p5829
ag5479
aa(lp5830
S'Payel13.jpg'
p5831
ag5479
aa(lp5832
S'Payel14.jpg'
p5833
ag5479
aa(lp5834
S'Payel15.jpg'
p5835
ag5479
aa(lp5836
S'Payel16.jpg'
p5837
ag5479
aa(lp5838
S'Payel17.jpg'
p5839
ag5479
aa(lp5840
S'Payel18.jpg'
p5841
ag5479
aa(lp5842
S'Payel19.jpg'
p5843
ag5479
aa(lp5844
S'Payel2.jpg'
p5845
ag5479
aa(lp5846
S'Payel3.jpg'
p5847
ag5479
aa(lp5848
S'Payel31.jpg'
p5849
ag5479
aa(lp5850
S'Payel32.jpg'
p5851
ag5479
aa(lp5852
S'Payel33.jpg'
p5853
ag5479
aa(lp5854
S'Payel34.jpg'
p5855
ag5479
aa(lp5856
S'Payel35.jpg'
p5857
ag5479
aa(lp5858
S'Payel36.jpg'
p5859
ag5479
aa(lp5860
S'Payel37.jpg'
p5861
ag5479
aa(lp5862
S'Payel38.jpg'
p5863
ag5479
aa(lp5864
S'Payel39.jpg'
p5865
ag5479
aa(lp5866
S'Payel4.jpg'
p5867
ag5479
aa(lp5868
S'Payel40.jpg'
p5869
ag5479
aa(lp5870
S'Payel41.jpg'
p5871
ag5479
aa(lp5872
S'Payel42.jpg'
p5873
ag5479
aa(lp5874
S'Payel43.jpg'
p5875
ag5479
aa(lp5876
S'Payel44.jpg'
p5877
ag5479
aa(lp5878
S'Payel45.jpg'
p5879
ag5479
aa(lp5880
S'Payel46.jpg'
p5881
ag5479
aa(lp5882
S'Payel47.jpg'
p5883
ag5479
aa(lp5884
S'Payel48.jpg'
p5885
ag5479
aa(lp5886
S'Payel49.jpg'
p5887
ag5479
aa(lp5888
S'Payel5.jpg'
p5889
ag5479
aa(lp5890
S'Payel50.jpg'
p5891
ag5479
aa(lp5892
S'Payel51.jpg'
p5893
ag5479
aa(lp5894
S'Payel52.jpg'
p5895
ag5479
aa(lp5896
S'Payel53.jpg'
p5897
ag5479
aa(lp5898
S'Payel54.jpg'
p5899
ag5479
aa(lp5900
S'Payel55.jpg'
p5901
ag5479
aa(lp5902
S'Payel56.jpg'
p5903
ag5479
aa(lp5904
S'Payel57.jpg'
p5905
ag5479
aa(lp5906
S'Payel58.jpg'
p5907
ag5479
aa(lp5908
S'Payel59.jpg'
p5909
ag5479
aa(lp5910
S'Payel6.jpg'
p5911
ag5479
aa(lp5912
S'Payel60.jpg'
p5913
ag5479
aa(lp5914
S'Payel61.jpg'
p5915
ag5479
aa(lp5916
S'Payel62.jpg'
p5917
ag5479
aa(lp5918
S'Payel63.jpg'
p5919
ag5479
aa(lp5920
S'Payel64.jpg'
p5921
ag5479
aa(lp5922
S'Payel65.jpg'
p5923
ag5479
aa(lp5924
S'Payel66.jpg'
p5925
ag5479
aa(lp5926
S'Payel67.jpg'
p5927
ag5479
aa(lp5928
S'Payel68.jpg'
p5929
ag5479
aa(lp5930
S'Payel69.jpg'
p5931
ag5479
aa(lp5932
S'Payel7.jpg'
p5933
ag5479
aa(lp5934
S'Payel70.jpg'
p5935
ag5479
aa(lp5936
S'Payel71.jpg'
p5937
ag5479
aa(lp5938
S'Payel72.jpg'
p5939
ag5479
aa(lp5940
S'Payel73.jpg'
p5941
ag5479
aa(lp5942
S'Payel74.jpg'
p5943
ag5479
aa(lp5944
S'Payel75.jpg'
p5945
ag5479
aa(lp5946
S'Payel76.jpg'
p5947
ag5479
aa(lp5948
S'Payel77.jpg'
p5949
ag5479
aa(lp5950
S'Payel78.jpg'
p5951
ag5479
aa(lp5952
S'Payel79.jpg'
p5953
ag5479
aa(lp5954
S'Payel8.jpg'
p5955
ag5479
aa(lp5956
S'Payel80.jpg'
p5957
ag5479
aa(lp5958
S'Payel81.jpg'
p5959
ag5479
aa(lp5960
S'Payel82.jpg'
p5961
ag5479
aa(lp5962
S'Payel83.jpg'
p5963
ag5479
aa(lp5964
S'Payel84.jpg'
p5965
ag5479
aa(lp5966
S'Payel85.jpg'
p5967
ag5479
aa(lp5968
S'Payel9.jpg'
p5969
ag5479
aa(lp5970
S'PTwo1.jpg'
p5971
ag5479
aa(lp5972
S'PTwo10.jpg'
p5973
ag5479
aa(lp5974
S'PTwo11.jpg'
p5975
ag5479
aa(lp5976
S'PTwo12.jpg'
p5977
ag5479
aa(lp5978
S'PTwo13.jpg'
p5979
ag5479
aa(lp5980
S'PTwo14.jpg'
p5981
ag5479
aa(lp5982
S'PTwo15.jpg'
p5983
ag5479
aa(lp5984
S'PTwo16.jpg'
p5985
ag5479
aa(lp5986
S'PTwo17.jpg'
p5987
ag5479
aa(lp5988
S'PTwo18.jpg'
p5989
ag5479
aa(lp5990
S'PTwo19.jpg'
p5991
ag5479
aa(lp5992
S'PTwo2.jpg'
p5993
ag5479
aa(lp5994
S'PTwo20.jpg'
p5995
ag5479
aa(lp5996
S'PTwo21.jpg'
p5997
ag5479
aa(lp5998
S'PTwo22.jpg'
p5999
ag5479
aa(lp6000
S'PTwo23.jpg'
p6001
ag5479
aa(lp6002
S'PTwo24.jpg'
p6003
ag5479
aa(lp6004
S'PTwo25.jpg'
p6005
ag5479
aa(lp6006
S'PTwo26.jpg'
p6007
ag5479
aa(lp6008
S'PTwo27.jpg'
p6009
ag5479
aa(lp6010
S'PTwo28.jpg'
p6011
ag5479
aa(lp6012
S'PTwo29.jpg'
p6013
ag5479
aa(lp6014
S'PTwo3.jpg'
p6015
ag5479
aa(lp6016
S'PTwo30.jpg'
p6017
ag5479
aa(lp6018
S'PTwo31.jpg'
p6019
ag5479
aa(lp6020
S'PTwo32.jpg'
p6021
ag5479
aa(lp6022
S'PTwo33.jpg'
p6023
ag5479
aa(lp6024
S'PTwo34.jpg'
p6025
ag5479
aa(lp6026
S'PTwo4.jpg'
p6027
ag5479
aa(lp6028
S'PTwo5.jpg'
p6029
ag5479
aa(lp6030
S'PTwo6.jpg'
p6031
ag5479
aa(lp6032
S'PTwo7.jpg'
p6033
ag5479
aa(lp6034
S'PTwo8.jpg'
p6035
ag5479
aa(lp6036
S'PTwo9.jpg'
p6037
ag5479
aa(lp6038
S'Saumya1.jpg'
p6039
ag5479
aa(lp6040
S'Saumya10.jpg'
p6041
ag5479
aa(lp6042
S'Saumya11.jpg'
p6043
ag5479
aa(lp6044
S'Saumya12.jpg'
p6045
ag5479
aa(lp6046
S'Saumya13.jpg'
p6047
ag5479
aa(lp6048
S'Saumya14.jpg'
p6049
ag5479
aa(lp6050
S'Saumya15.jpg'
p6051
ag5479
aa(lp6052
S'Saumya16.jpg'
p6053
ag5479
aa(lp6054
S'Saumya17.jpg'
p6055
ag5479
aa(lp6056
S'Saumya18.jpg'
p6057
ag5479
aa(lp6058
S'Saumya19.jpg'
p6059
ag5479
aa(lp6060
S'Saumya2.jpg'
p6061
ag5479
aa(lp6062
S'Saumya20.jpg'
p6063
ag5479
aa(lp6064
S'Saumya21.jpg'
p6065
ag5479
aa(lp6066
S'Saumya22.jpg'
p6067
ag5479
aa(lp6068
S'Saumya23.jpg'
p6069
ag5479
aa(lp6070
S'Saumya24.jpg'
p6071
ag5479
aa(lp6072
S'Saumya25.jpg'
p6073
ag5479
aa(lp6074
S'Saumya26.jpg'
p6075
ag5479
aa(lp6076
S'Saumya27.jpg'
p6077
ag5479
aa(lp6078
S'Saumya28.jpg'
p6079
ag5479
aa(lp6080
S'Saumya29.jpg'
p6081
ag5479
aa(lp6082
S'Saumya3.jpg'
p6083
ag5479
aa(lp6084
S'Saumya30.jpg'
p6085
ag5479
aa(lp6086
S'Saumya31.jpg'
p6087
ag5479
aa(lp6088
S'Saumya32.jpg'
p6089
ag5479
aa(lp6090
S'Saumya33.jpg'
p6091
ag5479
aa(lp6092
S'Saumya34.jpg'
p6093
ag5479
aa(lp6094
S'Saumya35.jpg'
p6095
ag5479
aa(lp6096
S'Saumya36.jpg'
p6097
ag5479
aa(lp6098
S'Saumya37.jpg'
p6099
ag5479
aa(lp6100
S'Saumya38.jpg'
p6101
ag5479
aa(lp6102
S'Saumya39.jpg'
p6103
ag5479
aa(lp6104
S'Saumya4.jpg'
p6105
ag5479
aa(lp6106
S'Saumya40.jpg'
p6107
ag5479
aa(lp6108
S'Saumya41.jpg'
p6109
ag5479
aa(lp6110
S'Saumya42.jpg'
p6111
ag5479
aa(lp6112
S'Saumya43.jpg'
p6113
ag5479
aa(lp6114
S'Saumya44.jpg'
p6115
ag5479
aa(lp6116
S'Saumya45.jpg'
p6117
ag5479
aa(lp6118
S'Saumya46.jpg'
p6119
ag5479
aa(lp6120
S'Saumya47.jpg'
p6121
ag5479
aa(lp6122
S'Saumya5.jpg'
p6123
ag5479
aa(lp6124
S'Saumya57.jpg'
p6125
ag5479
aa(lp6126
S'Saumya58.jpg'
p6127
ag5479
aa(lp6128
S'Saumya59.jpg'
p6129
ag5479
aa(lp6130
S'Saumya6.jpg'
p6131
ag5479
aa(lp6132
S'Saumya60.jpg'
p6133
ag5479
aa(lp6134
S'Saumya61.jpg'
p6135
ag5479
aa(lp6136
S'Saumya62.jpg'
p6137
ag5479
aa(lp6138
S'Saumya63.jpg'
p6139
ag5479
aa(lp6140
S'Saumya64.jpg'
p6141
ag5479
aa(lp6142
S'Saumya65.jpg'
p6143
ag5479
aa(lp6144
S'Saumya66.jpg'
p6145
ag5479
aa(lp6146
S'Saumya67.jpg'
p6147
ag5479
aa(lp6148
S'Saumya68.jpg'
p6149
ag5479
aa(lp6150
S'Saumya69.jpg'
p6151
ag5479
aa(lp6152
S'Saumya7.jpg'
p6153
ag5479
aa(lp6154
S'Saumya70.jpg'
p6155
ag5479
aa(lp6156
S'Saumya71.jpg'
p6157
ag5479
aa(lp6158
S'Saumya72.jpg'
p6159
ag5479
aa(lp6160
S'Saumya73.jpg'
p6161
ag5479
aa(lp6162
S'Saumya74.jpg'
p6163
ag5479
aa(lp6164
S'Saumya75.jpg'
p6165
ag5479
aa(lp6166
S'Saumya76.jpg'
p6167
ag5479
aa(lp6168
S'Saumya77.jpg'
p6169
ag5479
aa(lp6170
S'Saumya78.jpg'
p6171
ag5479
aa(lp6172
S'Saumya79.jpg'
p6173
ag5479
aa(lp6174
S'Saumya8.jpg'
p6175
ag5479
aa(lp6176
S'Saumya9.jpg'
p6177
ag5479
aa(lp6178
S'SSec1.jpg'
p6179
ag5479
aa(lp6180
S'SSec10.jpg'
p6181
ag5479
aa(lp6182
S'SSec11.jpg'
p6183
ag5479
aa(lp6184
S'SSec12.jpg'
p6185
ag5479
aa(lp6186
S'SSec13.jpg'
p6187
ag5479
aa(lp6188
S'SSec14.jpg'
p6189
ag5479
aa(lp6190
S'SSec15.jpg'
p6191
ag5479
aa(lp6192
S'SSec16.jpg'
p6193
ag5479
aa(lp6194
S'SSec17.jpg'
p6195
ag5479
aa(lp6196
S'SSec18.jpg'
p6197
ag5479
aa(lp6198
S'SSec19.jpg'
p6199
ag5479
aa(lp6200
S'SSec2.jpg'
p6201
ag5479
aa(lp6202
S'SSec20.jpg'
p6203
ag5479
aa(lp6204
S'SSec21.jpg'
p6205
ag5479
aa(lp6206
S'SSec22.jpg'
p6207
ag5479
aa(lp6208
S'SSec23.jpg'
p6209
ag5479
aa(lp6210
S'SSec24.jpg'
p6211
ag5479
aa(lp6212
S'SSec25.jpg'
p6213
ag5479
aa(lp6214
S'SSec26.jpg'
p6215
ag5479
aa(lp6216
S'SSec27.jpg'
p6217
ag5479
aa(lp6218
S'SSec28.jpg'
p6219
ag5479
aa(lp6220
S'SSec29.jpg'
p6221
ag5479
aa(lp6222
S'SSec3.jpg'
p6223
ag5479
aa(lp6224
S'SSec30.jpg'
p6225
ag5479
aa(lp6226
S'SSec31.jpg'
p6227
ag5479
aa(lp6228
S'SSec32.jpg'
p6229
ag5479
aa(lp6230
S'SSec33.jpg'
p6231
ag5479
aa(lp6232
S'SSec34.jpg'
p6233
ag5479
aa(lp6234
S'SSec35.jpg'
p6235
ag5479
aa(lp6236
S'SSec36.jpg'
p6237
ag5479
aa(lp6238
S'SSec37.jpg'
p6239
ag5479
aa(lp6240
S'SSec38.jpg'
p6241
ag5479
aa(lp6242
S'SSec39.jpg'
p6243
ag5479
aa(lp6244
S'SSec4.jpg'
p6245
ag5479
aa(lp6246
S'SSec40.jpg'
p6247
ag5479
aa(lp6248
S'SSec41.jpg'
p6249
ag5479
aa(lp6250
S'SSec42.jpg'
p6251
ag5479
aa(lp6252
S'SSec43.jpg'
p6253
ag5479
aa(lp6254
S'SSec44.jpg'
p6255
ag5479
aa(lp6256
S'SSec45.jpg'
p6257
ag5479
aa(lp6258
S'SSec46.jpg'
p6259
ag5479
aa(lp6260
S'SSec47.jpg'
p6261
ag5479
aa(lp6262
S'SSec48.jpg'
p6263
ag5479
aa(lp6264
S'SSec5.jpg'
p6265
ag5479
aa(lp6266
S'SSec6.jpg'
p6267
ag5479
aa(lp6268
S'SSec7.jpg'
p6269
ag5479
aa(lp6270
S'SSec8.jpg'
p6271
ag5479
aa(lp6272
S'SSec9.jpg'
p6273
ag5479
aa(lp6274
S'Combined1.jpg'
p6275
aS'their'
p6276
aa(lp6277
S'Combined10.jpg'
p6278
ag6276
aa(lp6279
S'Combined100.jpg'
p6280
ag6276
aa(lp6281
S'Combined101.jpg'
p6282
ag6276
aa(lp6283
S'Combined102.jpg'
p6284
ag6276
aa(lp6285
S'Combined103.jpg'
p6286
ag6276
aa(lp6287
S'Combined104.jpg'
p6288
ag6276
aa(lp6289
S'Combined105.jpg'
p6290
ag6276
aa(lp6291
S'Combined106.jpg'
p6292
ag6276
aa(lp6293
S'Combined107.jpg'
p6294
ag6276
aa(lp6295
S'Combined108.jpg'
p6296
ag6276
aa(lp6297
S'Combined11.jpg'
p6298
ag6276
aa(lp6299
S'Combined12.jpg'
p6300
ag6276
aa(lp6301
S'Combined13.jpg'
p6302
ag6276
aa(lp6303
S'Combined14.jpg'
p6304
ag6276
aa(lp6305
S'Combined15.jpg'
p6306
ag6276
aa(lp6307
S'Combined16.jpg'
p6308
ag6276
aa(lp6309
S'Combined17.jpg'
p6310
ag6276
aa(lp6311
S'Combined18.jpg'
p6312
ag6276
aa(lp6313
S'Combined19.jpg'
p6314
ag6276
aa(lp6315
S'Combined2.jpg'
p6316
ag6276
aa(lp6317
S'Combined20.jpg'
p6318
ag6276
aa(lp6319
S'Combined21.jpg'
p6320
ag6276
aa(lp6321
S'Combined22.jpg'
p6322
ag6276
aa(lp6323
S'Combined23.jpg'
p6324
ag6276
aa(lp6325
S'Combined24.jpg'
p6326
ag6276
aa(lp6327
S'Combined25.jpg'
p6328
ag6276
aa(lp6329
S'Combined26.jpg'
p6330
ag6276
aa(lp6331
S'Combined27.jpg'
p6332
ag6276
aa(lp6333
S'Combined28.jpg'
p6334
ag6276
aa(lp6335
S'Combined29.jpg'
p6336
ag6276
aa(lp6337
S'Combined3.jpg'
p6338
ag6276
aa(lp6339
S'Combined30.jpg'
p6340
ag6276
aa(lp6341
S'Combined31.jpg'
p6342
ag6276
aa(lp6343
S'Combined32.jpg'
p6344
ag6276
aa(lp6345
S'Combined33.jpg'
p6346
ag6276
aa(lp6347
S'Combined34.jpg'
p6348
ag6276
aa(lp6349
S'Combined35.jpg'
p6350
ag6276
aa(lp6351
S'Combined36.jpg'
p6352
ag6276
aa(lp6353
S'Combined37.jpg'
p6354
ag6276
aa(lp6355
S'Combined38.jpg'
p6356
ag6276
aa(lp6357
S'Combined39.jpg'
p6358
ag6276
aa(lp6359
S'Combined4.jpg'
p6360
ag6276
aa(lp6361
S'Combined40.jpg'
p6362
ag6276
aa(lp6363
S'Combined41.jpg'
p6364
ag6276
aa(lp6365
S'Combined42.jpg'
p6366
ag6276
aa(lp6367
S'Combined43.jpg'
p6368
ag6276
aa(lp6369
S'Combined44.jpg'
p6370
ag6276
aa(lp6371
S'Combined45.jpg'
p6372
ag6276
aa(lp6373
S'Combined46.jpg'
p6374
ag6276
aa(lp6375
S'Combined47.jpg'
p6376
ag6276
aa(lp6377
S'Combined48.jpg'
p6378
ag6276
aa(lp6379
S'Combined49.jpg'
p6380
ag6276
aa(lp6381
S'Combined5.jpg'
p6382
ag6276
aa(lp6383
S'Combined50.jpg'
p6384
ag6276
aa(lp6385
S'Combined51.jpg'
p6386
ag6276
aa(lp6387
S'Combined52.jpg'
p6388
ag6276
aa(lp6389
S'Combined53.jpg'
p6390
ag6276
aa(lp6391
S'Combined54.jpg'
p6392
ag6276
aa(lp6393
S'Combined55.jpg'
p6394
ag6276
aa(lp6395
S'Combined56.jpg'
p6396
ag6276
aa(lp6397
S'Combined57.jpg'
p6398
ag6276
aa(lp6399
S'Combined58.jpg'
p6400
ag6276
aa(lp6401
S'Combined59.jpg'
p6402
ag6276
aa(lp6403
S'Combined6.jpg'
p6404
ag6276
aa(lp6405
S'Combined60.jpg'
p6406
ag6276
aa(lp6407
S'Combined61.jpg'
p6408
ag6276
aa(lp6409
S'Combined62.jpg'
p6410
ag6276
aa(lp6411
S'Combined63.jpg'
p6412
ag6276
aa(lp6413
S'Combined64.jpg'
p6414
ag6276
aa(lp6415
S'Combined65.jpg'
p6416
ag6276
aa(lp6417
S'Combined66.jpg'
p6418
ag6276
aa(lp6419
S'Combined67.jpg'
p6420
ag6276
aa(lp6421
S'Combined68.jpg'
p6422
ag6276
aa(lp6423
S'Combined69.jpg'
p6424
ag6276
aa(lp6425
S'Combined7.jpg'
p6426
ag6276
aa(lp6427
S'Combined70.jpg'
p6428
ag6276
aa(lp6429
S'Combined71.jpg'
p6430
ag6276
aa(lp6431
S'Combined72.jpg'
p6432
ag6276
aa(lp6433
S'Combined73.jpg'
p6434
ag6276
aa(lp6435
S'Combined74.jpg'
p6436
ag6276
aa(lp6437
S'Combined75.jpg'
p6438
ag6276
aa(lp6439
S'Combined76.jpg'
p6440
ag6276
aa(lp6441
S'Combined77.jpg'
p6442
ag6276
aa(lp6443
S'Combined78.jpg'
p6444
ag6276
aa(lp6445
S'Combined79.jpg'
p6446
ag6276
aa(lp6447
S'Combined8.jpg'
p6448
ag6276
aa(lp6449
S'Combined80.jpg'
p6450
ag6276
aa(lp6451
S'Combined81.jpg'
p6452
ag6276
aa(lp6453
S'Combined82.jpg'
p6454
ag6276
aa(lp6455
S'Combined83.jpg'
p6456
ag6276
aa(lp6457
S'Combined84.jpg'
p6458
ag6276
aa(lp6459
S'Combined85.jpg'
p6460
ag6276
aa(lp6461
S'Combined86.jpg'
p6462
ag6276
aa(lp6463
S'Combined87.jpg'
p6464
ag6276
aa(lp6465
S'Combined88.jpg'
p6466
ag6276
aa(lp6467
S'Combined89.jpg'
p6468
ag6276
aa(lp6469
S'Combined9.jpg'
p6470
ag6276
aa(lp6471
S'Combined90.jpg'
p6472
ag6276
aa(lp6473
S'Combined91.jpg'
p6474
ag6276
aa(lp6475
S'Combined92.jpg'
p6476
ag6276
aa(lp6477
S'Combined93.jpg'
p6478
ag6276
aa(lp6479
S'Combined94.jpg'
p6480
ag6276
aa(lp6481
S'Combined95.jpg'
p6482
ag6276
aa(lp6483
S'Combined96.jpg'
p6484
ag6276
aa(lp6485
S'Combined97.jpg'
p6486
ag6276
aa(lp6487
S'Combined98.jpg'
p6488
ag6276
aa(lp6489
S'Combined99.jpg'
p6490
ag6276
aa(lp6491
S'frame10.jpg'
p6492
ag6276
aa(lp6493
S'frame11.jpg'
p6494
ag6276
aa(lp6495
S'frame12.jpg'
p6496
ag6276
aa(lp6497
S'frame13.jpg'
p6498
ag6276
aa(lp6499
S'frame14.jpg'
p6500
ag6276
aa(lp6501
S'frame15.jpg'
p6502
ag6276
aa(lp6503
S'frame16.jpg'
p6504
ag6276
aa(lp6505
S'frame17.jpg'
p6506
ag6276
aa(lp6507
S'frame18.jpg'
p6508
ag6276
aa(lp6509
S'frame19.jpg'
p6510
ag6276
aa(lp6511
S'frame8.jpg'
p6512
ag6276
aa(lp6513
S'frame9.jpg'
p6514
ag6276
aa(lp6515
S'PavOne0.jpg'
p6516
ag6276
aa(lp6517
S'PavOne1.jpg'
p6518
ag6276
aa(lp6519
S'PavOne10.jpg'
p6520
ag6276
aa(lp6521
S'PavOne11.jpg'
p6522
ag6276
aa(lp6523
S'PavOne12.jpg'
p6524
ag6276
aa(lp6525
S'PavOne13.jpg'
p6526
ag6276
aa(lp6527
S'PavOne14.jpg'
p6528
ag6276
aa(lp6529
S'PavOne15.jpg'
p6530
ag6276
aa(lp6531
S'PavOne16.jpg'
p6532
ag6276
aa(lp6533
S'PavOne17.jpg'
p6534
ag6276
aa(lp6535
S'PavOne18.jpg'
p6536
ag6276
aa(lp6537
S'PavOne19.jpg'
p6538
ag6276
aa(lp6539
S'PavOne2.jpg'
p6540
ag6276
aa(lp6541
S'PavOne20.jpg'
p6542
ag6276
aa(lp6543
S'PavOne21.jpg'
p6544
ag6276
aa(lp6545
S'PavOne22.jpg'
p6546
ag6276
aa(lp6547
S'PavOne23.jpg'
p6548
ag6276
aa(lp6549
S'PavOne24.jpg'
p6550
ag6276
aa(lp6551
S'PavOne25.jpg'
p6552
ag6276
aa(lp6553
S'PavOne26.jpg'
p6554
ag6276
aa(lp6555
S'PavOne3.jpg'
p6556
ag6276
aa(lp6557
S'PavOne4.jpg'
p6558
ag6276
aa(lp6559
S'PavOne5.jpg'
p6560
ag6276
aa(lp6561
S'PavOne6.jpg'
p6562
ag6276
aa(lp6563
S'PavOne7.jpg'
p6564
ag6276
aa(lp6565
S'PavOne8.jpg'
p6566
ag6276
aa(lp6567
S'PavOne9.jpg'
p6568
ag6276
aa(lp6569
S'PavThree0.jpg'
p6570
ag6276
aa(lp6571
S'PavThree1.jpg'
p6572
ag6276
aa(lp6573
S'PavThree10.jpg'
p6574
ag6276
aa(lp6575
S'PavThree11.jpg'
p6576
ag6276
aa(lp6577
S'PavThree12.jpg'
p6578
ag6276
aa(lp6579
S'PavThree13.jpg'
p6580
ag6276
aa(lp6581
S'PavThree14.jpg'
p6582
ag6276
aa(lp6583
S'PavThree15.jpg'
p6584
ag6276
aa(lp6585
S'PavThree16.jpg'
p6586
ag6276
aa(lp6587
S'PavThree17.jpg'
p6588
ag6276
aa(lp6589
S'PavThree18.jpg'
p6590
ag6276
aa(lp6591
S'PavThree19.jpg'
p6592
ag6276
aa(lp6593
S'PavThree2.jpg'
p6594
ag6276
aa(lp6595
S'PavThree20.jpg'
p6596
ag6276
aa(lp6597
S'PavThree21.jpg'
p6598
ag6276
aa(lp6599
S'PavThree22.jpg'
p6600
ag6276
aa(lp6601
S'PavThree23.jpg'
p6602
ag6276
aa(lp6603
S'PavThree3.jpg'
p6604
ag6276
aa(lp6605
S'PavThree4.jpg'
p6606
ag6276
aa(lp6607
S'PavThree5.jpg'
p6608
ag6276
aa(lp6609
S'PavThree6.jpg'
p6610
ag6276
aa(lp6611
S'PavThree7.jpg'
p6612
ag6276
aa(lp6613
S'PavThree8.jpg'
p6614
ag6276
aa(lp6615
S'PavThree9.jpg'
p6616
ag6276
aa(lp6617
S'PavTwo0.jpg'
p6618
ag6276
aa(lp6619
S'PavTwo1.jpg'
p6620
ag6276
aa(lp6621
S'PavTwo10.jpg'
p6622
ag6276
aa(lp6623
S'PavTwo11.jpg'
p6624
ag6276
aa(lp6625
S'PavTwo12.jpg'
p6626
ag6276
aa(lp6627
S'PavTwo13.jpg'
p6628
ag6276
aa(lp6629
S'PavTwo14.jpg'
p6630
ag6276
aa(lp6631
S'PavTwo15.jpg'
p6632
ag6276
aa(lp6633
S'PavTwo16.jpg'
p6634
ag6276
aa(lp6635
S'PavTwo17.jpg'
p6636
ag6276
aa(lp6637
S'PavTwo18.jpg'
p6638
ag6276
aa(lp6639
S'PavTwo2.jpg'
p6640
ag6276
aa(lp6641
S'PavTwo3.jpg'
p6642
ag6276
aa(lp6643
S'PavTwo4.jpg'
p6644
ag6276
aa(lp6645
S'PavTwo5.jpg'
p6646
ag6276
aa(lp6647
S'PavTwo6.jpg'
p6648
ag6276
aa(lp6649
S'PavTwo7.jpg'
p6650
ag6276
aa(lp6651
S'PavTwo8.jpg'
p6652
ag6276
aa(lp6653
S'PavTwo9.jpg'
p6654
ag6276
aa(lp6655
S'Payel1.jpg'
p6656
ag6276
aa(lp6657
S'Payel10.jpg'
p6658
ag6276
aa(lp6659
S'Payel11.jpg'
p6660
ag6276
aa(lp6661
S'Payel12.jpg'
p6662
ag6276
aa(lp6663
S'Payel13.jpg'
p6664
ag6276
aa(lp6665
S'Payel14.jpg'
p6666
ag6276
aa(lp6667
S'Payel15.jpg'
p6668
ag6276
aa(lp6669
S'Payel16.jpg'
p6670
ag6276
aa(lp6671
S'Payel17.jpg'
p6672
ag6276
aa(lp6673
S'Payel18.jpg'
p6674
ag6276
aa(lp6675
S'Payel19.jpg'
p6676
ag6276
aa(lp6677
S'Payel2.jpg'
p6678
ag6276
aa(lp6679
S'Payel20.jpg'
p6680
ag6276
aa(lp6681
S'Payel21.jpg'
p6682
ag6276
aa(lp6683
S'Payel22.jpg'
p6684
ag6276
aa(lp6685
S'Payel23.jpg'
p6686
ag6276
aa(lp6687
S'Payel24.jpg'
p6688
ag6276
aa(lp6689
S'Payel25.jpg'
p6690
ag6276
aa(lp6691
S'Payel26.jpg'
p6692
ag6276
aa(lp6693
S'Payel27.jpg'
p6694
ag6276
aa(lp6695
S'Payel28.jpg'
p6696
ag6276
aa(lp6697
S'Payel29.jpg'
p6698
ag6276
aa(lp6699
S'Payel3.jpg'
p6700
ag6276
aa(lp6701
S'Payel30.jpg'
p6702
ag6276
aa(lp6703
S'Payel31.jpg'
p6704
ag6276
aa(lp6705
S'Payel32.jpg'
p6706
ag6276
aa(lp6707
S'Payel33.jpg'
p6708
ag6276
aa(lp6709
S'Payel34.jpg'
p6710
ag6276
aa(lp6711
S'Payel35.jpg'
p6712
ag6276
aa(lp6713
S'Payel36.jpg'
p6714
ag6276
aa(lp6715
S'Payel37.jpg'
p6716
ag6276
aa(lp6717
S'Payel38.jpg'
p6718
ag6276
aa(lp6719
S'Payel39.jpg'
p6720
ag6276
aa(lp6721
S'Payel4.jpg'
p6722
ag6276
aa(lp6723
S'Payel40.jpg'
p6724
ag6276
aa(lp6725
S'Payel41.jpg'
p6726
ag6276
aa(lp6727
S'Payel42.jpg'
p6728
ag6276
aa(lp6729
S'Payel43.jpg'
p6730
ag6276
aa(lp6731
S'Payel44.jpg'
p6732
ag6276
aa(lp6733
S'Payel45.jpg'
p6734
ag6276
aa(lp6735
S'Payel46.jpg'
p6736
ag6276
aa(lp6737
S'Payel47.jpg'
p6738
ag6276
aa(lp6739
S'Payel48.jpg'
p6740
ag6276
aa(lp6741
S'Payel49.jpg'
p6742
ag6276
aa(lp6743
S'Payel5.jpg'
p6744
ag6276
aa(lp6745
S'Payel50.jpg'
p6746
ag6276
aa(lp6747
S'Payel51.jpg'
p6748
ag6276
aa(lp6749
S'Payel52.jpg'
p6750
ag6276
aa(lp6751
S'Payel53.jpg'
p6752
ag6276
aa(lp6753
S'Payel54.jpg'
p6754
ag6276
aa(lp6755
S'Payel55.jpg'
p6756
ag6276
aa(lp6757
S'Payel56.jpg'
p6758
ag6276
aa(lp6759
S'Payel57.jpg'
p6760
ag6276
aa(lp6761
S'Payel58.jpg'
p6762
ag6276
aa(lp6763
S'Payel59.jpg'
p6764
ag6276
aa(lp6765
S'Payel6.jpg'
p6766
ag6276
aa(lp6767
S'Payel60.jpg'
p6768
ag6276
aa(lp6769
S'Payel7.jpg'
p6770
ag6276
aa(lp6771
S'Payel8.jpg'
p6772
ag6276
aa(lp6773
S'Payel9.jpg'
p6774
ag6276
aa(lp6775
S'PTwo128.jpg'
p6776
ag6276
aa(lp6777
S'PTwo129.jpg'
p6778
ag6276
aa(lp6779
S'PTwo130.jpg'
p6780
ag6276
aa(lp6781
S'PTwo131.jpg'
p6782
ag6276
aa(lp6783
S'PTwo132.jpg'
p6784
ag6276
aa(lp6785
S'PTwo133.jpg'
p6786
ag6276
aa(lp6787
S'PTwo134.jpg'
p6788
ag6276
aa(lp6789
S'PTwo135.jpg'
p6790
ag6276
aa(lp6791
S'PTwo136.jpg'
p6792
ag6276
aa(lp6793
S'PTwo137.jpg'
p6794
ag6276
aa(lp6795
S'PTwo138.jpg'
p6796
ag6276
aa(lp6797
S'PTwo139.jpg'
p6798
ag6276
aa(lp6799
S'PTwo140.jpg'
p6800
ag6276
aa(lp6801
S'PTwo141.jpg'
p6802
ag6276
aa(lp6803
S'PTwo163.jpg'
p6804
ag6276
aa(lp6805
S'PTwo164.jpg'
p6806
ag6276
aa(lp6807
S'PTwo165.jpg'
p6808
ag6276
aa(lp6809
S'PTwo166.jpg'
p6810
ag6276
aa(lp6811
S'PTwo167.jpg'
p6812
ag6276
aa(lp6813
S'PTwo168.jpg'
p6814
ag6276
aa(lp6815
S'PTwo169.jpg'
p6816
ag6276
aa(lp6817
S'PTwo170.jpg'
p6818
ag6276
aa(lp6819
S'PTwo171.jpg'
p6820
ag6276
aa(lp6821
S'PTwo172.jpg'
p6822
ag6276
aa(lp6823
S'PTwo173.jpg'
p6824
ag6276
aa(lp6825
S'PTwo174.jpg'
p6826
ag6276
aa(lp6827
S'PTwo175.jpg'
p6828
ag6276
aa(lp6829
S'PTwo176.jpg'
p6830
ag6276
aa(lp6831
S'PTwo177.jpg'
p6832
ag6276
aa(lp6833
S'PTwo178.jpg'
p6834
ag6276
aa(lp6835
S'PTwo193.jpg'
p6836
ag6276
aa(lp6837
S'PTwo194.jpg'
p6838
ag6276
aa(lp6839
S'PTwo195.jpg'
p6840
ag6276
aa(lp6841
S'PTwo196.jpg'
p6842
ag6276
aa(lp6843
S'PTwo197.jpg'
p6844
ag6276
aa(lp6845
S'PTwo198.jpg'
p6846
ag6276
aa(lp6847
S'PTwo199.jpg'
p6848
ag6276
aa(lp6849
S'PTwo200.jpg'
p6850
ag6276
aa(lp6851
S'PTwo201.jpg'
p6852
ag6276
aa(lp6853
S'PTwo202.jpg'
p6854
ag6276
aa(lp6855
S'PTwo203.jpg'
p6856
ag6276
aa(lp6857
S'PTwo204.jpg'
p6858
ag6276
aa(lp6859
S'PTwo205.jpg'
p6860
ag6276
aa(lp6861
S'PTwo206.jpg'
p6862
ag6276
aa(lp6863
S'PTwo207.jpg'
p6864
ag6276
aa(lp6865
S'PTwo224.jpg'
p6866
ag6276
aa(lp6867
S'PTwo225.jpg'
p6868
ag6276
aa(lp6869
S'PTwo226.jpg'
p6870
ag6276
aa(lp6871
S'PTwo227.jpg'
p6872
ag6276
aa(lp6873
S'PTwo228.jpg'
p6874
ag6276
aa(lp6875
S'PTwo229.jpg'
p6876
ag6276
aa(lp6877
S'PTwo230.jpg'
p6878
ag6276
aa(lp6879
S'PTwo231.jpg'
p6880
ag6276
aa(lp6881
S'PTwo232.jpg'
p6882
ag6276
aa(lp6883
S'PTwo233.jpg'
p6884
ag6276
aa(lp6885
S'PTwo234.jpg'
p6886
ag6276
aa(lp6887
S'PTwo235.jpg'
p6888
ag6276
aa(lp6889
S'PTwo236.jpg'
p6890
ag6276
aa(lp6891
S'PTwo237.jpg'
p6892
ag6276
aa(lp6893
S'PTwo238.jpg'
p6894
ag6276
aa(lp6895
S'PTwo239.jpg'
p6896
ag6276
aa(lp6897
S'Saumya115.jpg'
p6898
ag6276
aa(lp6899
S'Saumya116.jpg'
p6900
ag6276
aa(lp6901
S'Saumya117.jpg'
p6902
ag6276
aa(lp6903
S'Saumya118.jpg'
p6904
ag6276
aa(lp6905
S'Saumya119.jpg'
p6906
ag6276
aa(lp6907
S'Saumya120.jpg'
p6908
ag6276
aa(lp6909
S'Saumya121.jpg'
p6910
ag6276
aa(lp6911
S'Saumya122.jpg'
p6912
ag6276
aa(lp6913
S'Saumya123.jpg'
p6914
ag6276
aa(lp6915
S'Saumya124.jpg'
p6916
ag6276
aa(lp6917
S'Saumya125.jpg'
p6918
ag6276
aa(lp6919
S'Saumya126.jpg'
p6920
ag6276
aa(lp6921
S'Saumya127.jpg'
p6922
ag6276
aa(lp6923
S'Saumya128.jpg'
p6924
ag6276
aa(lp6925
S'Saumya129.jpg'
p6926
ag6276
aa(lp6927
S'Saumya130.jpg'
p6928
ag6276
aa(lp6929
S'Saumya131.jpg'
p6930
ag6276
aa(lp6931
S'Saumya132.jpg'
p6932
ag6276
aa(lp6933
S'Saumya133.jpg'
p6934
ag6276
aa(lp6935
S'Saumya134.jpg'
p6936
ag6276
aa(lp6937
S'Saumya135.jpg'
p6938
ag6276
aa(lp6939
S'Saumya136.jpg'
p6940
ag6276
aa(lp6941
S'Saumya137.jpg'
p6942
ag6276
aa(lp6943
S'Saumya138.jpg'
p6944
ag6276
aa(lp6945
S'Saumya20.jpg'
p6946
ag6276
aa(lp6947
S'Saumya21.jpg'
p6948
ag6276
aa(lp6949
S'Saumya22.jpg'
p6950
ag6276
aa(lp6951
S'Saumya23.jpg'
p6952
ag6276
aa(lp6953
S'Saumya24.jpg'
p6954
ag6276
aa(lp6955
S'Saumya25.jpg'
p6956
ag6276
aa(lp6957
S'Saumya26.jpg'
p6958
ag6276
aa(lp6959
S'Saumya27.jpg'
p6960
ag6276
aa(lp6961
S'Saumya28.jpg'
p6962
ag6276
aa(lp6963
S'Saumya29.jpg'
p6964
ag6276
aa(lp6965
S'Saumya30.jpg'
p6966
ag6276
aa(lp6967
S'Saumya31.jpg'
p6968
ag6276
aa(lp6969
S'Saumya32.jpg'
p6970
ag6276
aa(lp6971
S'Saumya33.jpg'
p6972
ag6276
aa(lp6973
S'Saumya34.jpg'
p6974
ag6276
aa(lp6975
S'Saumya35.jpg'
p6976
ag6276
aa(lp6977
S'Saumya36.jpg'
p6978
ag6276
aa(lp6979
S'Saumya37.jpg'
p6980
ag6276
aa(lp6981
S'Saumya38.jpg'
p6982
ag6276
aa(lp6983
S'Saumya39.jpg'
p6984
ag6276
aa(lp6985
S'Saumya40.jpg'
p6986
ag6276
aa(lp6987
S'Saumya41.jpg'
p6988
ag6276
aa(lp6989
S'Saumya42.jpg'
p6990
ag6276
aa(lp6991
S'Saumya43.jpg'
p6992
ag6276
aa(lp6993
S'Saumya44.jpg'
p6994
ag6276
aa(lp6995
S'Saumya63.jpg'
p6996
ag6276
aa(lp6997
S'Saumya64.jpg'
p6998
ag6276
aa(lp6999
S'Saumya65.jpg'
p7000
ag6276
aa(lp7001
S'Saumya66.jpg'
p7002
ag6276
aa(lp7003
S'Saumya67.jpg'
p7004
ag6276
aa(lp7005
S'Saumya68.jpg'
p7006
ag6276
aa(lp7007
S'Saumya69.jpg'
p7008
ag6276
aa(lp7009
S'Saumya70.jpg'
p7010
ag6276
aa(lp7011
S'Saumya71.jpg'
p7012
ag6276
aa(lp7013
S'Saumya72.jpg'
p7014
ag6276
aa(lp7015
S'Saumya73.jpg'
p7016
ag6276
aa(lp7017
S'Saumya74.jpg'
p7018
ag6276
aa(lp7019
S'Saumya75.jpg'
p7020
ag6276
aa(lp7021
S'Saumya76.jpg'
p7022
ag6276
aa(lp7023
S'Saumya77.jpg'
p7024
ag6276
aa(lp7025
S'Saumya78.jpg'
p7026
ag6276
aa(lp7027
S'Saumya79.jpg'
p7028
ag6276
aa(lp7029
S'Saumya80.jpg'
p7030
ag6276
aa(lp7031
S'Saumya81.jpg'
p7032
ag6276
aa(lp7033
S'Saumya82.jpg'
p7034
ag6276
aa(lp7035
S'Saumya83.jpg'
p7036
ag6276
aa(lp7037
S'Saumya84.jpg'
p7038
ag6276
aa(lp7039
S'Saumya85.jpg'
p7040
ag6276
aa(lp7041
S'Saumya86.jpg'
p7042
ag6276
aa(lp7043
S'Saumya87.jpg'
p7044
ag6276
aa(lp7045
S'Saumya88.jpg'
p7046
ag6276
aa(lp7047
S'SSec1.jpg'
p7048
ag6276
aa(lp7049
S'SSec10.jpg'
p7050
ag6276
aa(lp7051
S'SSec11.jpg'
p7052
ag6276
aa(lp7053
S'SSec12.jpg'
p7054
ag6276
aa(lp7055
S'SSec13.jpg'
p7056
ag6276
aa(lp7057
S'SSec14.jpg'
p7058
ag6276
aa(lp7059
S'SSec15.jpg'
p7060
ag6276
aa(lp7061
S'SSec16.jpg'
p7062
ag6276
aa(lp7063
S'SSec17.jpg'
p7064
ag6276
aa(lp7065
S'SSec18.jpg'
p7066
ag6276
aa(lp7067
S'SSec19.jpg'
p7068
ag6276
aa(lp7069
S'SSec2.jpg'
p7070
ag6276
aa(lp7071
S'SSec20.jpg'
p7072
ag6276
aa(lp7073
S'SSec21.jpg'
p7074
ag6276
aa(lp7075
S'SSec22.jpg'
p7076
ag6276
aa(lp7077
S'SSec23.jpg'
p7078
ag6276
aa(lp7079
S'SSec24.jpg'
p7080
ag6276
aa(lp7081
S'SSec25.jpg'
p7082
ag6276
aa(lp7083
S'SSec26.jpg'
p7084
ag6276
aa(lp7085
S'SSec27.jpg'
p7086
ag6276
aa(lp7087
S'SSec28.jpg'
p7088
ag6276
aa(lp7089
S'SSec29.jpg'
p7090
ag6276
aa(lp7091
S'SSec3.jpg'
p7092
ag6276
aa(lp7093
S'SSec30.jpg'
p7094
ag6276
aa(lp7095
S'SSec31.jpg'
p7096
ag6276
aa(lp7097
S'SSec32.jpg'
p7098
ag6276
aa(lp7099
S'SSec33.jpg'
p7100
ag6276
aa(lp7101
S'SSec34.jpg'
p7102
ag6276
aa(lp7103
S'SSec35.jpg'
p7104
ag6276
aa(lp7105
S'SSec36.jpg'
p7106
ag6276
aa(lp7107
S'SSec37.jpg'
p7108
ag6276
aa(lp7109
S'SSec38.jpg'
p7110
ag6276
aa(lp7111
S'SSec39.jpg'
p7112
ag6276
aa(lp7113
S'SSec4.jpg'
p7114
ag6276
aa(lp7115
S'SSec40.jpg'
p7116
ag6276
aa(lp7117
S'SSec41.jpg'
p7118
ag6276
aa(lp7119
S'SSec42.jpg'
p7120
ag6276
aa(lp7121
S'SSec43.jpg'
p7122
ag6276
aa(lp7123
S'SSec44.jpg'
p7124
ag6276
aa(lp7125
S'SSec45.jpg'
p7126
ag6276
aa(lp7127
S'SSec46.jpg'
p7128
ag6276
aa(lp7129
S'SSec47.jpg'
p7130
ag6276
aa(lp7131
S'SSec48.jpg'
p7132
ag6276
aa(lp7133
S'SSec49.jpg'
p7134
ag6276
aa(lp7135
S'SSec5.jpg'
p7136
ag6276
aa(lp7137
S'SSec50.jpg'
p7138
ag6276
aa(lp7139
S'SSec51.jpg'
p7140
ag6276
aa(lp7141
S'SSec52.jpg'
p7142
ag6276
aa(lp7143
S'SSec53.jpg'
p7144
ag6276
aa(lp7145
S'SSec54.jpg'
p7146
ag6276
aa(lp7147
S'SSec55.jpg'
p7148
ag6276
aa(lp7149
S'SSec56.jpg'
p7150
ag6276
aa(lp7151
S'SSec57.jpg'
p7152
ag6276
aa(lp7153
S'SSec58.jpg'
p7154
ag6276
aa(lp7155
S'SSec59.jpg'
p7156
ag6276
aa(lp7157
S'SSec6.jpg'
p7158
ag6276
aa(lp7159
S'SSec60.jpg'
p7160
ag6276
aa(lp7161
S'SSec61.jpg'
p7162
ag6276
aa(lp7163
S'SSec62.jpg'
p7164
ag6276
aa(lp7165
S'SSec63.jpg'
p7166
ag6276
aa(lp7167
S'SSec64.jpg'
p7168
ag6276
aa(lp7169
S'SSec65.jpg'
p7170
ag6276
aa(lp7171
S'SSec66.jpg'
p7172
ag6276
aa(lp7173
S'SSec67.jpg'
p7174
ag6276
aa(lp7175
S'SSec68.jpg'
p7176
ag6276
aa(lp7177
S'SSec69.jpg'
p7178
ag6276
aa(lp7179
S'SSec7.jpg'
p7180
ag6276
aa(lp7181
S'SSec70.jpg'
p7182
ag6276
aa(lp7183
S'SSec71.jpg'
p7184
ag6276
aa(lp7185
S'SSec8.jpg'
p7186
ag6276
aa(lp7187
S'SSec9.jpg'
p7188
ag6276
aa(lp7189
S'frame0.jpg'
p7190
aS'why'
p7191
aa(lp7192
S'frame1.jpg'
p7193
ag7191
aa(lp7194
S'frame10.jpg'
p7195
ag7191
aa(lp7196
S'frame11.jpg'
p7197
ag7191
aa(lp7198
S'frame12.jpg'
p7199
ag7191
aa(lp7200
S'frame13.jpg'
p7201
ag7191
aa(lp7202
S'frame14.jpg'
p7203
ag7191
aa(lp7204
S'frame15.jpg'
p7205
ag7191
aa(lp7206
S'frame16.jpg'
p7207
ag7191
aa(lp7208
S'frame17.jpg'
p7209
ag7191
aa(lp7210
S'frame18.jpg'
p7211
ag7191
aa(lp7212
S'frame19.jpg'
p7213
ag7191
aa(lp7214
S'frame2.jpg'
p7215
ag7191
aa(lp7216
S'frame20.jpg'
p7217
ag7191
aa(lp7218
S'frame21.jpg'
p7219
ag7191
aa(lp7220
S'frame22.jpg'
p7221
ag7191
aa(lp7222
S'frame23.jpg'
p7223
ag7191
aa(lp7224
S'frame24.jpg'
p7225
ag7191
aa(lp7226
S'frame3.jpg'
p7227
ag7191
aa(lp7228
S'frame4.jpg'
p7229
ag7191
aa(lp7230
S'frame5.jpg'
p7231
ag7191
aa(lp7232
S'frame6.jpg'
p7233
ag7191
aa(lp7234
S'frame7.jpg'
p7235
ag7191
aa(lp7236
S'frame8.jpg'
p7237
ag7191
aa(lp7238
S'frame9.jpg'
p7239
ag7191
aa(lp7240
S'PavOne0.jpg'
p7241
ag7191
aa(lp7242
S'PavOne1.jpg'
p7243
ag7191
aa(lp7244
S'PavOne10.jpg'
p7245
ag7191
aa(lp7246
S'PavOne11.jpg'
p7247
ag7191
aa(lp7248
S'PavOne12.jpg'
p7249
ag7191
aa(lp7250
S'PavOne13.jpg'
p7251
ag7191
aa(lp7252
S'PavOne14.jpg'
p7253
ag7191
aa(lp7254
S'PavOne15.jpg'
p7255
ag7191
aa(lp7256
S'PavOne16.jpg'
p7257
ag7191
aa(lp7258
S'PavOne17.jpg'
p7259
ag7191
aa(lp7260
S'PavOne18.jpg'
p7261
ag7191
aa(lp7262
S'PavOne19.jpg'
p7263
ag7191
aa(lp7264
S'PavOne2.jpg'
p7265
ag7191
aa(lp7266
S'PavOne20.jpg'
p7267
ag7191
aa(lp7268
S'PavOne21.jpg'
p7269
ag7191
aa(lp7270
S'PavOne22.jpg'
p7271
ag7191
aa(lp7272
S'PavOne23.jpg'
p7273
ag7191
aa(lp7274
S'PavOne24.jpg'
p7275
ag7191
aa(lp7276
S'PavOne25.jpg'
p7277
ag7191
aa(lp7278
S'PavOne26.jpg'
p7279
ag7191
aa(lp7280
S'PavOne27.jpg'
p7281
ag7191
aa(lp7282
S'PavOne28.jpg'
p7283
ag7191
aa(lp7284
S'PavOne29.jpg'
p7285
ag7191
aa(lp7286
S'PavOne3.jpg'
p7287
ag7191
aa(lp7288
S'PavOne30.jpg'
p7289
ag7191
aa(lp7290
S'PavOne31.jpg'
p7291
ag7191
aa(lp7292
S'PavOne32.jpg'
p7293
ag7191
aa(lp7294
S'PavOne4.jpg'
p7295
ag7191
aa(lp7296
S'PavOne5.jpg'
p7297
ag7191
aa(lp7298
S'PavOne6.jpg'
p7299
ag7191
aa(lp7300
S'PavOne7.jpg'
p7301
ag7191
aa(lp7302
S'PavOne8.jpg'
p7303
ag7191
aa(lp7304
S'PavOne9.jpg'
p7305
ag7191
aa(lp7306
S'PavThree0.jpg'
p7307
ag7191
aa(lp7308
S'PavThree1.jpg'
p7309
ag7191
aa(lp7310
S'PavThree10.jpg'
p7311
ag7191
aa(lp7312
S'PavThree11.jpg'
p7313
ag7191
aa(lp7314
S'PavThree12.jpg'
p7315
ag7191
aa(lp7316
S'PavThree13.jpg'
p7317
ag7191
aa(lp7318
S'PavThree14.jpg'
p7319
ag7191
aa(lp7320
S'PavThree15.jpg'
p7321
ag7191
aa(lp7322
S'PavThree16.jpg'
p7323
ag7191
aa(lp7324
S'PavThree17.jpg'
p7325
ag7191
aa(lp7326
S'PavThree18.jpg'
p7327
ag7191
aa(lp7328
S'PavThree19.jpg'
p7329
ag7191
aa(lp7330
S'PavThree2.jpg'
p7331
ag7191
aa(lp7332
S'PavThree20.jpg'
p7333
ag7191
aa(lp7334
S'PavThree21.jpg'
p7335
ag7191
aa(lp7336
S'PavThree22.jpg'
p7337
ag7191
aa(lp7338
S'PavThree23.jpg'
p7339
ag7191
aa(lp7340
S'PavThree24.jpg'
p7341
ag7191
aa(lp7342
S'PavThree25.jpg'
p7343
ag7191
aa(lp7344
S'PavThree26.jpg'
p7345
ag7191
aa(lp7346
S'PavThree27.jpg'
p7347
ag7191
aa(lp7348
S'PavThree28.jpg'
p7349
ag7191
aa(lp7350
S'PavThree29.jpg'
p7351
ag7191
aa(lp7352
S'PavThree3.jpg'
p7353
ag7191
aa(lp7354
S'PavThree30.jpg'
p7355
ag7191
aa(lp7356
S'PavThree31.jpg'
p7357
ag7191
aa(lp7358
S'PavThree32.jpg'
p7359
ag7191
aa(lp7360
S'PavThree33.jpg'
p7361
ag7191
aa(lp7362
S'PavThree34.jpg'
p7363
ag7191
aa(lp7364
S'PavThree35.jpg'
p7365
ag7191
aa(lp7366
S'PavThree36.jpg'
p7367
ag7191
aa(lp7368
S'PavThree37.jpg'
p7369
ag7191
aa(lp7370
S'PavThree4.jpg'
p7371
ag7191
aa(lp7372
S'PavThree5.jpg'
p7373
ag7191
aa(lp7374
S'PavThree6.jpg'
p7375
ag7191
aa(lp7376
S'PavThree7.jpg'
p7377
ag7191
aa(lp7378
S'PavThree8.jpg'
p7379
ag7191
aa(lp7380
S'PavThree9.jpg'
p7381
ag7191
aa(lp7382
S'PavTwo0.jpg'
p7383
ag7191
aa(lp7384
S'PavTwo1.jpg'
p7385
ag7191
aa(lp7386
S'PavTwo10.jpg'
p7387
ag7191
aa(lp7388
S'PavTwo11.jpg'
p7389
ag7191
aa(lp7390
S'PavTwo12.jpg'
p7391
ag7191
aa(lp7392
S'PavTwo13.jpg'
p7393
ag7191
aa(lp7394
S'PavTwo14.jpg'
p7395
ag7191
aa(lp7396
S'PavTwo15.jpg'
p7397
ag7191
aa(lp7398
S'PavTwo16.jpg'
p7399
ag7191
aa(lp7400
S'PavTwo17.jpg'
p7401
ag7191
aa(lp7402
S'PavTwo18.jpg'
p7403
ag7191
aa(lp7404
S'PavTwo19.jpg'
p7405
ag7191
aa(lp7406
S'PavTwo2.jpg'
p7407
ag7191
aa(lp7408
S'PavTwo20.jpg'
p7409
ag7191
aa(lp7410
S'PavTwo21.jpg'
p7411
ag7191
aa(lp7412
S'PavTwo22.jpg'
p7413
ag7191
aa(lp7414
S'PavTwo23.jpg'
p7415
ag7191
aa(lp7416
S'PavTwo24.jpg'
p7417
ag7191
aa(lp7418
S'PavTwo25.jpg'
p7419
ag7191
aa(lp7420
S'PavTwo3.jpg'
p7421
ag7191
aa(lp7422
S'PavTwo4.jpg'
p7423
ag7191
aa(lp7424
S'PavTwo5.jpg'
p7425
ag7191
aa(lp7426
S'PavTwo6.jpg'
p7427
ag7191
aa(lp7428
S'PavTwo7.jpg'
p7429
ag7191
aa(lp7430
S'PavTwo8.jpg'
p7431
ag7191
aa(lp7432
S'PavTwo9.jpg'
p7433
ag7191
aa(lp7434
S'Payel1.jpg'
p7435
ag7191
aa(lp7436
S'Payel10.jpg'
p7437
ag7191
aa(lp7438
S'Payel100.jpg'
p7439
ag7191
aa(lp7440
S'Payel101.jpg'
p7441
ag7191
aa(lp7442
S'Payel11.jpg'
p7443
ag7191
aa(lp7444
S'Payel12.jpg'
p7445
ag7191
aa(lp7446
S'Payel13.jpg'
p7447
ag7191
aa(lp7448
S'Payel14.jpg'
p7449
ag7191
aa(lp7450
S'Payel15.jpg'
p7451
ag7191
aa(lp7452
S'Payel16.jpg'
p7453
ag7191
aa(lp7454
S'Payel17.jpg'
p7455
ag7191
aa(lp7456
S'Payel18.jpg'
p7457
ag7191
aa(lp7458
S'Payel19.jpg'
p7459
ag7191
aa(lp7460
S'Payel2.jpg'
p7461
ag7191
aa(lp7462
S'Payel3.jpg'
p7463
ag7191
aa(lp7464
S'Payel36.jpg'
p7465
ag7191
aa(lp7466
S'Payel37.jpg'
p7467
ag7191
aa(lp7468
S'Payel38.jpg'
p7469
ag7191
aa(lp7470
S'Payel39.jpg'
p7471
ag7191
aa(lp7472
S'Payel4.jpg'
p7473
ag7191
aa(lp7474
S'Payel40.jpg'
p7475
ag7191
aa(lp7476
S'Payel41.jpg'
p7477
ag7191
aa(lp7478
S'Payel42.jpg'
p7479
ag7191
aa(lp7480
S'Payel43.jpg'
p7481
ag7191
aa(lp7482
S'Payel44.jpg'
p7483
ag7191
aa(lp7484
S'Payel45.jpg'
p7485
ag7191
aa(lp7486
S'Payel46.jpg'
p7487
ag7191
aa(lp7488
S'Payel47.jpg'
p7489
ag7191
aa(lp7490
S'Payel48.jpg'
p7491
ag7191
aa(lp7492
S'Payel49.jpg'
p7493
ag7191
aa(lp7494
S'Payel5.jpg'
p7495
ag7191
aa(lp7496
S'Payel50.jpg'
p7497
ag7191
aa(lp7498
S'Payel51.jpg'
p7499
ag7191
aa(lp7500
S'Payel52.jpg'
p7501
ag7191
aa(lp7502
S'Payel53.jpg'
p7503
ag7191
aa(lp7504
S'Payel6.jpg'
p7505
ag7191
aa(lp7506
S'Payel63.jpg'
p7507
ag7191
aa(lp7508
S'Payel64.jpg'
p7509
ag7191
aa(lp7510
S'Payel65.jpg'
p7511
ag7191
aa(lp7512
S'Payel66.jpg'
p7513
ag7191
aa(lp7514
S'Payel67.jpg'
p7515
ag7191
aa(lp7516
S'Payel68.jpg'
p7517
ag7191
aa(lp7518
S'Payel69.jpg'
p7519
ag7191
aa(lp7520
S'Payel7.jpg'
p7521
ag7191
aa(lp7522
S'Payel70.jpg'
p7523
ag7191
aa(lp7524
S'Payel71.jpg'
p7525
ag7191
aa(lp7526
S'Payel72.jpg'
p7527
ag7191
aa(lp7528
S'Payel73.jpg'
p7529
ag7191
aa(lp7530
S'Payel74.jpg'
p7531
ag7191
aa(lp7532
S'Payel8.jpg'
p7533
ag7191
aa(lp7534
S'Payel80.jpg'
p7535
ag7191
aa(lp7536
S'Payel81.jpg'
p7537
ag7191
aa(lp7538
S'Payel82.jpg'
p7539
ag7191
aa(lp7540
S'Payel83.jpg'
p7541
ag7191
aa(lp7542
S'Payel84.jpg'
p7543
ag7191
aa(lp7544
S'Payel85.jpg'
p7545
ag7191
aa(lp7546
S'Payel86.jpg'
p7547
ag7191
aa(lp7548
S'Payel87.jpg'
p7549
ag7191
aa(lp7550
S'Payel88.jpg'
p7551
ag7191
aa(lp7552
S'Payel89.jpg'
p7553
ag7191
aa(lp7554
S'Payel9.jpg'
p7555
ag7191
aa(lp7556
S'Payel90.jpg'
p7557
ag7191
aa(lp7558
S'Payel91.jpg'
p7559
ag7191
aa(lp7560
S'Payel92.jpg'
p7561
ag7191
aa(lp7562
S'Payel93.jpg'
p7563
ag7191
aa(lp7564
S'Payel94.jpg'
p7565
ag7191
aa(lp7566
S'Payel95.jpg'
p7567
ag7191
aa(lp7568
S'Payel96.jpg'
p7569
ag7191
aa(lp7570
S'Payel97.jpg'
p7571
ag7191
aa(lp7572
S'Payel98.jpg'
p7573
ag7191
aa(lp7574
S'Payel99.jpg'
p7575
ag7191
aa(lp7576
S'PTwo1.jpg'
p7577
ag7191
aa(lp7578
S'PTwo10.jpg'
p7579
ag7191
aa(lp7580
S'PTwo11.jpg'
p7581
ag7191
aa(lp7582
S'PTwo12.jpg'
p7583
ag7191
aa(lp7584
S'PTwo13.jpg'
p7585
ag7191
aa(lp7586
S'PTwo14.jpg'
p7587
ag7191
aa(lp7588
S'PTwo15.jpg'
p7589
ag7191
aa(lp7590
S'PTwo16.jpg'
p7591
ag7191
aa(lp7592
S'PTwo17.jpg'
p7593
ag7191
aa(lp7594
S'PTwo18.jpg'
p7595
ag7191
aa(lp7596
S'PTwo19.jpg'
p7597
ag7191
aa(lp7598
S'PTwo2.jpg'
p7599
ag7191
aa(lp7600
S'PTwo20.jpg'
p7601
ag7191
aa(lp7602
S'PTwo21.jpg'
p7603
ag7191
aa(lp7604
S'PTwo22.jpg'
p7605
ag7191
aa(lp7606
S'PTwo23.jpg'
p7607
ag7191
aa(lp7608
S'PTwo24.jpg'
p7609
ag7191
aa(lp7610
S'PTwo25.jpg'
p7611
ag7191
aa(lp7612
S'PTwo26.jpg'
p7613
ag7191
aa(lp7614
S'PTwo27.jpg'
p7615
ag7191
aa(lp7616
S'PTwo28.jpg'
p7617
ag7191
aa(lp7618
S'PTwo29.jpg'
p7619
ag7191
aa(lp7620
S'PTwo3.jpg'
p7621
ag7191
aa(lp7622
S'PTwo30.jpg'
p7623
ag7191
aa(lp7624
S'PTwo31.jpg'
p7625
ag7191
aa(lp7626
S'PTwo32.jpg'
p7627
ag7191
aa(lp7628
S'PTwo33.jpg'
p7629
ag7191
aa(lp7630
S'PTwo34.jpg'
p7631
ag7191
aa(lp7632
S'PTwo35.jpg'
p7633
ag7191
aa(lp7634
S'PTwo36.jpg'
p7635
ag7191
aa(lp7636
S'PTwo37.jpg'
p7637
ag7191
aa(lp7638
S'PTwo38.jpg'
p7639
ag7191
aa(lp7640
S'PTwo39.jpg'
p7641
ag7191
aa(lp7642
S'PTwo4.jpg'
p7643
ag7191
aa(lp7644
S'PTwo40.jpg'
p7645
ag7191
aa(lp7646
S'PTwo41.jpg'
p7647
ag7191
aa(lp7648
S'PTwo42.jpg'
p7649
ag7191
aa(lp7650
S'PTwo43.jpg'
p7651
ag7191
aa(lp7652
S'PTwo44.jpg'
p7653
ag7191
aa(lp7654
S'PTwo45.jpg'
p7655
ag7191
aa(lp7656
S'PTwo46.jpg'
p7657
ag7191
aa(lp7658
S'PTwo47.jpg'
p7659
ag7191
aa(lp7660
S'PTwo48.jpg'
p7661
ag7191
aa(lp7662
S'PTwo49.jpg'
p7663
ag7191
aa(lp7664
S'PTwo5.jpg'
p7665
ag7191
aa(lp7666
S'PTwo50.jpg'
p7667
ag7191
aa(lp7668
S'PTwo6.jpg'
p7669
ag7191
aa(lp7670
S'PTwo7.jpg'
p7671
ag7191
aa(lp7672
S'PTwo8.jpg'
p7673
ag7191
aa(lp7674
S'PTwo9.jpg'
p7675
ag7191
aa(lp7676
S'Saumya119.jpg'
p7677
ag7191
aa(lp7678
S'Saumya120.jpg'
p7679
ag7191
aa(lp7680
S'Saumya121.jpg'
p7681
ag7191
aa(lp7682
S'Saumya122.jpg'
p7683
ag7191
aa(lp7684
S'Saumya123.jpg'
p7685
ag7191
aa(lp7686
S'Saumya124.jpg'
p7687
ag7191
aa(lp7688
S'Saumya125.jpg'
p7689
ag7191
aa(lp7690
S'Saumya126.jpg'
p7691
ag7191
aa(lp7692
S'Saumya127.jpg'
p7693
ag7191
aa(lp7694
S'Saumya128.jpg'
p7695
ag7191
aa(lp7696
S'Saumya129.jpg'
p7697
ag7191
aa(lp7698
S'Saumya130.jpg'
p7699
ag7191
aa(lp7700
S'Saumya131.jpg'
p7701
ag7191
aa(lp7702
S'Saumya132.jpg'
p7703
ag7191
aa(lp7704
S'Saumya133.jpg'
p7705
ag7191
aa(lp7706
S'Saumya134.jpg'
p7707
ag7191
aa(lp7708
S'Saumya135.jpg'
p7709
ag7191
aa(lp7710
S'Saumya136.jpg'
p7711
ag7191
aa(lp7712
S'Saumya137.jpg'
p7713
ag7191
aa(lp7714
S'Saumya138.jpg'
p7715
ag7191
aa(lp7716
S'Saumya139.jpg'
p7717
ag7191
aa(lp7718
S'Saumya140.jpg'
p7719
ag7191
aa(lp7720
S'Saumya141.jpg'
p7721
ag7191
aa(lp7722
S'Saumya142.jpg'
p7723
ag7191
aa(lp7724
S'Saumya143.jpg'
p7725
ag7191
aa(lp7726
S'Saumya144.jpg'
p7727
ag7191
aa(lp7728
S'Saumya145.jpg'
p7729
ag7191
aa(lp7730
S'Saumya146.jpg'
p7731
ag7191
aa(lp7732
S'Saumya147.jpg'
p7733
ag7191
aa(lp7734
S'Saumya148.jpg'
p7735
ag7191
aa(lp7736
S'Saumya149.jpg'
p7737
ag7191
aa(lp7738
S'Saumya150.jpg'
p7739
ag7191
aa(lp7740
S'Saumya151.jpg'
p7741
ag7191
aa(lp7742
S'Saumya152.jpg'
p7743
ag7191
aa(lp7744
S'Saumya153.jpg'
p7745
ag7191
aa(lp7746
S'Saumya154.jpg'
p7747
ag7191
aa(lp7748
S'Saumya189.jpg'
p7749
ag7191
aa(lp7750
S'Saumya190.jpg'
p7751
ag7191
aa(lp7752
S'Saumya191.jpg'
p7753
ag7191
aa(lp7754
S'Saumya192.jpg'
p7755
ag7191
aa(lp7756
S'Saumya193.jpg'
p7757
ag7191
aa(lp7758
S'Saumya194.jpg'
p7759
ag7191
aa(lp7760
S'Saumya195.jpg'
p7761
ag7191
aa(lp7762
S'Saumya196.jpg'
p7763
ag7191
aa(lp7764
S'Saumya197.jpg'
p7765
ag7191
aa(lp7766
S'Saumya198.jpg'
p7767
ag7191
aa(lp7768
S'Saumya199.jpg'
p7769
ag7191
aa(lp7770
S'Saumya200.jpg'
p7771
ag7191
aa(lp7772
S'Saumya201.jpg'
p7773
ag7191
aa(lp7774
S'Saumya202.jpg'
p7775
ag7191
aa(lp7776
S'Saumya203.jpg'
p7777
ag7191
aa(lp7778
S'Saumya204.jpg'
p7779
ag7191
aa(lp7780
S'Saumya205.jpg'
p7781
ag7191
aa(lp7782
S'Saumya206.jpg'
p7783
ag7191
aa(lp7784
S'Saumya207.jpg'
p7785
ag7191
aa(lp7786
S'Saumya208.jpg'
p7787
ag7191
aa(lp7788
S'Saumya209.jpg'
p7789
ag7191
aa(lp7790
S'Saumya210.jpg'
p7791
ag7191
aa(lp7792
S'Saumya211.jpg'
p7793
ag7191
aa(lp7794
S'Saumya212.jpg'
p7795
ag7191
aa(lp7796
S'Saumya213.jpg'
p7797
ag7191
aa(lp7798
S'Saumya214.jpg'
p7799
ag7191
aa(lp7800
S'Saumya215.jpg'
p7801
ag7191
aa(lp7802
S'Saumya216.jpg'
p7803
ag7191
aa(lp7804
S'Saumya217.jpg'
p7805
ag7191
aa(lp7806
S'Saumya218.jpg'
p7807
ag7191
aa(lp7808
S'Saumya219.jpg'
p7809
ag7191
aa(lp7810
S'Saumya220.jpg'
p7811
ag7191
aa(lp7812
S'Saumya221.jpg'
p7813
ag7191
aa(lp7814
S'Saumya222.jpg'
p7815
ag7191
aa(lp7816
S'Saumya223.jpg'
p7817
ag7191
aa(lp7818
S'Saumya224.jpg'
p7819
ag7191
aa(lp7820
S'Saumya225.jpg'
p7821
ag7191
aa(lp7822
S'Saumya226.jpg'
p7823
ag7191
aa(lp7824
S'Saumya227.jpg'
p7825
ag7191
aa(lp7826
S'Saumya228.jpg'
p7827
ag7191
aa(lp7828
S'Saumya229.jpg'
p7829
ag7191
aa(lp7830
S'Saumya230.jpg'
p7831
ag7191
aa(lp7832
S'Saumya231.jpg'
p7833
ag7191
aa(lp7834
S'Saumya232.jpg'
p7835
ag7191
aa(lp7836
S'Saumya233.jpg'
p7837
ag7191
aa(lp7838
S'Saumya234.jpg'
p7839
ag7191
aa(lp7840
S'Saumya235.jpg'
p7841
ag7191
aa(lp7842
S'Saumya236.jpg'
p7843
ag7191
aa(lp7844
S'Saumya237.jpg'
p7845
ag7191
aa(lp7846
S'Saumya238.jpg'
p7847
ag7191
aa(lp7848
S'Saumya239.jpg'
p7849
ag7191
aa(lp7850
S'Saumya240.jpg'
p7851
ag7191
aa(lp7852
S'Saumya241.jpg'
p7853
ag7191
aa(lp7854
S'Saumya242.jpg'
p7855
ag7191
aa(lp7856
S'Saumya52.jpg'
p7857
ag7191
aa(lp7858
S'Saumya53.jpg'
p7859
ag7191
aa(lp7860
S'Saumya54.jpg'
p7861
ag7191
aa(lp7862
S'Saumya55.jpg'
p7863
ag7191
aa(lp7864
S'Saumya56.jpg'
p7865
ag7191
aa(lp7866
S'Saumya57.jpg'
p7867
ag7191
aa(lp7868
S'Saumya58.jpg'
p7869
ag7191
aa(lp7870
S'Saumya59.jpg'
p7871
ag7191
aa(lp7872
S'Saumya60.jpg'
p7873
ag7191
aa(lp7874
S'Saumya61.jpg'
p7875
ag7191
aa(lp7876
S'Saumya62.jpg'
p7877
ag7191
aa(lp7878
S'Saumya63.jpg'
p7879
ag7191
aa(lp7880
S'Saumya64.jpg'
p7881
ag7191
aa(lp7882
S'Saumya65.jpg'
p7883
ag7191
aa(lp7884
S'Saumya66.jpg'
p7885
ag7191
aa(lp7886
S'Saumya67.jpg'
p7887
ag7191
aa(lp7888
S'Saumya68.jpg'
p7889
ag7191
aa(lp7890
S'Saumya69.jpg'
p7891
ag7191
aa(lp7892
S'Saumya70.jpg'
p7893
ag7191
aa(lp7894
S'Saumya71.jpg'
p7895
ag7191
aa(lp7896
S'Saumya72.jpg'
p7897
ag7191
aa(lp7898
S'Saumya73.jpg'
p7899
ag7191
aa(lp7900
S'Saumya74.jpg'
p7901
ag7191
aa(lp7902
S'Saumya75.jpg'
p7903
ag7191
aa(lp7904
S'Saumya76.jpg'
p7905
ag7191
aa(lp7906
S'Saumya77.jpg'
p7907
ag7191
aa(lp7908
S'Saumya78.jpg'
p7909
ag7191
aa(lp7910
S'Saumya79.jpg'
p7911
ag7191
aa(lp7912
S'Saumya80.jpg'
p7913
ag7191
aa(lp7914
S'Saumya81.jpg'
p7915
ag7191
aa(lp7916
S'Saumya82.jpg'
p7917
ag7191
aa(lp7918
S'Saumya83.jpg'
p7919
ag7191
aa(lp7920
S'Saumya84.jpg'
p7921
ag7191
aa(lp7922
S'Saumya85.jpg'
p7923
ag7191
aa(lp7924
S'Saumya86.jpg'
p7925
ag7191
aa(lp7926
S'Saumya87.jpg'
p7927
ag7191
aa(lp7928
S'Saumya88.jpg'
p7929
ag7191
aa(lp7930
S'Saumya89.jpg'
p7931
ag7191
aa(lp7932
S'Saumya90.jpg'
p7933
ag7191
aa(lp7934
S'Saumya91.jpg'
p7935
ag7191
aa(lp7936
S'Saumya92.jpg'
p7937
ag7191
aa(lp7938
S'Saumya93.jpg'
p7939
ag7191
aa(lp7940
S'Saumya94.jpg'
p7941
ag7191
aa(lp7942
S'Saumya95.jpg'
p7943
ag7191
aa(lp7944
S'Saumya96.jpg'
p7945
ag7191
aa(lp7946
S'Saumya97.jpg'
p7947
ag7191
aa(lp7948
S'Saumya98.jpg'
p7949
ag7191
aa(lp7950
S'Saumya99.jpg'
p7951
ag7191
aa(lp7952
S'SSec1.jpg'
p7953
ag7191
aa(lp7954
S'SSec10.jpg'
p7955
ag7191
aa(lp7956
S'SSec11.jpg'
p7957
ag7191
aa(lp7958
S'SSec12.jpg'
p7959
ag7191
aa(lp7960
S'SSec13.jpg'
p7961
ag7191
aa(lp7962
S'SSec14.jpg'
p7963
ag7191
aa(lp7964
S'SSec15.jpg'
p7965
ag7191
aa(lp7966
S'SSec16.jpg'
p7967
ag7191
aa(lp7968
S'SSec17.jpg'
p7969
ag7191
aa(lp7970
S'SSec18.jpg'
p7971
ag7191
aa(lp7972
S'SSec19.jpg'
p7973
ag7191
aa(lp7974
S'SSec2.jpg'
p7975
ag7191
aa(lp7976
S'SSec20.jpg'
p7977
ag7191
aa(lp7978
S'SSec21.jpg'
p7979
ag7191
aa(lp7980
S'SSec22.jpg'
p7981
ag7191
aa(lp7982
S'SSec23.jpg'
p7983
ag7191
aa(lp7984
S'SSec24.jpg'
p7985
ag7191
aa(lp7986
S'SSec25.jpg'
p7987
ag7191
aa(lp7988
S'SSec26.jpg'
p7989
ag7191
aa(lp7990
S'SSec27.jpg'
p7991
ag7191
aa(lp7992
S'SSec28.jpg'
p7993
ag7191
aa(lp7994
S'SSec29.jpg'
p7995
ag7191
aa(lp7996
S'SSec3.jpg'
p7997
ag7191
aa(lp7998
S'SSec30.jpg'
p7999
ag7191
aa(lp8000
S'SSec31.jpg'
p8001
ag7191
aa(lp8002
S'SSec32.jpg'
p8003
ag7191
aa(lp8004
S'SSec33.jpg'
p8005
ag7191
aa(lp8006
S'SSec34.jpg'
p8007
ag7191
aa(lp8008
S'SSec35.jpg'
p8009
ag7191
aa(lp8010
S'SSec36.jpg'
p8011
ag7191
aa(lp8012
S'SSec37.jpg'
p8013
ag7191
aa(lp8014
S'SSec38.jpg'
p8015
ag7191
aa(lp8016
S'SSec39.jpg'
p8017
ag7191
aa(lp8018
S'SSec4.jpg'
p8019
ag7191
aa(lp8020
S'SSec40.jpg'
p8021
ag7191
aa(lp8022
S'SSec41.jpg'
p8023
ag7191
aa(lp8024
S'SSec42.jpg'
p8025
ag7191
aa(lp8026
S'SSec43.jpg'
p8027
ag7191
aa(lp8028
S'SSec44.jpg'
p8029
ag7191
aa(lp8030
S'SSec45.jpg'
p8031
ag7191
aa(lp8032
S'SSec46.jpg'
p8033
ag7191
aa(lp8034
S'SSec47.jpg'
p8035
ag7191
aa(lp8036
S'SSec48.jpg'
p8037
ag7191
aa(lp8038
S'SSec49.jpg'
p8039
ag7191
aa(lp8040
S'SSec5.jpg'
p8041
ag7191
aa(lp8042
S'SSec50.jpg'
p8043
ag7191
aa(lp8044
S'SSec51.jpg'
p8045
ag7191
aa(lp8046
S'SSec52.jpg'
p8047
ag7191
aa(lp8048
S'SSec53.jpg'
p8049
ag7191
aa(lp8050
S'SSec54.jpg'
p8051
ag7191
aa(lp8052
S'SSec55.jpg'
p8053
ag7191
aa(lp8054
S'SSec56.jpg'
p8055
ag7191
aa(lp8056
S'SSec57.jpg'
p8057
ag7191
aa(lp8058
S'SSec58.jpg'
p8059
ag7191
aa(lp8060
S'SSec59.jpg'
p8061
ag7191
aa(lp8062
S'SSec6.jpg'
p8063
ag7191
aa(lp8064
S'SSec60.jpg'
p8065
ag7191
aa(lp8066
S'SSec61.jpg'
p8067
ag7191
aa(lp8068
S'SSec62.jpg'
p8069
ag7191
aa(lp8070
S'SSec63.jpg'
p8071
ag7191
aa(lp8072
S'SSec64.jpg'
p8073
ag7191
aa(lp8074
S'SSec65.jpg'
p8075
ag7191
aa(lp8076
S'SSec66.jpg'
p8077
ag7191
aa(lp8078
S'SSec67.jpg'
p8079
ag7191
aa(lp8080
S'SSec68.jpg'
p8081
ag7191
aa(lp8082
S'SSec69.jpg'
p8083
ag7191
aa(lp8084
S'SSec7.jpg'
p8085
ag7191
aa(lp8086
S'SSec70.jpg'
p8087
ag7191
aa(lp8088
S'SSec71.jpg'
p8089
ag7191
aa(lp8090
S'SSec72.jpg'
p8091
ag7191
aa(lp8092
S'SSec73.jpg'
p8093
ag7191
aa(lp8094
S'SSec74.jpg'
p8095
ag7191
aa(lp8096
S'SSec8.jpg'
p8097
ag7191
aa(lp8098
S'SSec9.jpg'
p8099
ag7191
aa(lp8100
S'Combined1.jpg'
p8101
aS'your'
p8102
aa(lp8103
S'Combined10.jpg'
p8104
ag8102
aa(lp8105
S'Combined11.jpg'
p8106
ag8102
aa(lp8107
S'Combined12.jpg'
p8108
ag8102
aa(lp8109
S'Combined13.jpg'
p8110
ag8102
aa(lp8111
S'Combined14.jpg'
p8112
ag8102
aa(lp8113
S'Combined15.jpg'
p8114
ag8102
aa(lp8115
S'Combined16.jpg'
p8116
ag8102
aa(lp8117
S'Combined17.jpg'
p8118
ag8102
aa(lp8119
S'Combined18.jpg'
p8120
ag8102
aa(lp8121
S'Combined19.jpg'
p8122
ag8102
aa(lp8123
S'Combined2.jpg'
p8124
ag8102
aa(lp8125
S'Combined20.jpg'
p8126
ag8102
aa(lp8127
S'Combined21.jpg'
p8128
ag8102
aa(lp8129
S'Combined22.jpg'
p8130
ag8102
aa(lp8131
S'Combined23.jpg'
p8132
ag8102
aa(lp8133
S'Combined24.jpg'
p8134
ag8102
aa(lp8135
S'Combined25.jpg'
p8136
ag8102
aa(lp8137
S'Combined26.jpg'
p8138
ag8102
aa(lp8139
S'Combined27.jpg'
p8140
ag8102
aa(lp8141
S'Combined28.jpg'
p8142
ag8102
aa(lp8143
S'Combined29.jpg'
p8144
ag8102
aa(lp8145
S'Combined3.jpg'
p8146
ag8102
aa(lp8147
S'Combined30.jpg'
p8148
ag8102
aa(lp8149
S'Combined31.jpg'
p8150
ag8102
aa(lp8151
S'Combined32.jpg'
p8152
ag8102
aa(lp8153
S'Combined33.jpg'
p8154
ag8102
aa(lp8155
S'Combined34.jpg'
p8156
ag8102
aa(lp8157
S'Combined35.jpg'
p8158
ag8102
aa(lp8159
S'Combined36.jpg'
p8160
ag8102
aa(lp8161
S'Combined37.jpg'
p8162
ag8102
aa(lp8163
S'Combined38.jpg'
p8164
ag8102
aa(lp8165
S'Combined39.jpg'
p8166
ag8102
aa(lp8167
S'Combined4.jpg'
p8168
ag8102
aa(lp8169
S'Combined40.jpg'
p8170
ag8102
aa(lp8171
S'Combined41.jpg'
p8172
ag8102
aa(lp8173
S'Combined42.jpg'
p8174
ag8102
aa(lp8175
S'Combined43.jpg'
p8176
ag8102
aa(lp8177
S'Combined44.jpg'
p8178
ag8102
aa(lp8179
S'Combined45.jpg'
p8180
ag8102
aa(lp8181
S'Combined46.jpg'
p8182
ag8102
aa(lp8183
S'Combined47.jpg'
p8184
ag8102
aa(lp8185
S'Combined48.jpg'
p8186
ag8102
aa(lp8187
S'Combined49.jpg'
p8188
ag8102
aa(lp8189
S'Combined5.jpg'
p8190
ag8102
aa(lp8191
S'Combined50.jpg'
p8192
ag8102
aa(lp8193
S'Combined51.jpg'
p8194
ag8102
aa(lp8195
S'Combined52.jpg'
p8196
ag8102
aa(lp8197
S'Combined53.jpg'
p8198
ag8102
aa(lp8199
S'Combined54.jpg'
p8200
ag8102
aa(lp8201
S'Combined55.jpg'
p8202
ag8102
aa(lp8203
S'Combined56.jpg'
p8204
ag8102
aa(lp8205
S'Combined57.jpg'
p8206
ag8102
aa(lp8207
S'Combined58.jpg'
p8208
ag8102
aa(lp8209
S'Combined59.jpg'
p8210
ag8102
aa(lp8211
S'Combined6.jpg'
p8212
ag8102
aa(lp8213
S'Combined60.jpg'
p8214
ag8102
aa(lp8215
S'Combined61.jpg'
p8216
ag8102
aa(lp8217
S'Combined62.jpg'
p8218
ag8102
aa(lp8219
S'Combined63.jpg'
p8220
ag8102
aa(lp8221
S'Combined64.jpg'
p8222
ag8102
aa(lp8223
S'Combined65.jpg'
p8224
ag8102
aa(lp8225
S'Combined66.jpg'
p8226
ag8102
aa(lp8227
S'Combined67.jpg'
p8228
ag8102
aa(lp8229
S'Combined68.jpg'
p8230
ag8102
aa(lp8231
S'Combined69.jpg'
p8232
ag8102
aa(lp8233
S'Combined7.jpg'
p8234
ag8102
aa(lp8235
S'Combined70.jpg'
p8236
ag8102
aa(lp8237
S'Combined71.jpg'
p8238
ag8102
aa(lp8239
S'Combined72.jpg'
p8240
ag8102
aa(lp8241
S'Combined73.jpg'
p8242
ag8102
aa(lp8243
S'Combined74.jpg'
p8244
ag8102
aa(lp8245
S'Combined75.jpg'
p8246
ag8102
aa(lp8247
S'Combined76.jpg'
p8248
ag8102
aa(lp8249
S'Combined77.jpg'
p8250
ag8102
aa(lp8251
S'Combined78.jpg'
p8252
ag8102
aa(lp8253
S'Combined79.jpg'
p8254
ag8102
aa(lp8255
S'Combined8.jpg'
p8256
ag8102
aa(lp8257
S'Combined80.jpg'
p8258
ag8102
aa(lp8259
S'Combined81.jpg'
p8260
ag8102
aa(lp8261
S'Combined82.jpg'
p8262
ag8102
aa(lp8263
S'Combined83.jpg'
p8264
ag8102
aa(lp8265
S'Combined84.jpg'
p8266
ag8102
aa(lp8267
S'Combined85.jpg'
p8268
ag8102
aa(lp8269
S'Combined86.jpg'
p8270
ag8102
aa(lp8271
S'Combined87.jpg'
p8272
ag8102
aa(lp8273
S'Combined88.jpg'
p8274
ag8102
aa(lp8275
S'Combined89.jpg'
p8276
ag8102
aa(lp8277
S'Combined9.jpg'
p8278
ag8102
aa(lp8279
S'Combined90.jpg'
p8280
ag8102
aa(lp8281
S'Combined91.jpg'
p8282
ag8102
aa(lp8283
S'Combined92.jpg'
p8284
ag8102
aa(lp8285
S'Combined93.jpg'
p8286
ag8102
aa(lp8287
S'Combined94.jpg'
p8288
ag8102
aa(lp8289
S'Combined95.jpg'
p8290
ag8102
aa(lp8291
S'Combined96.jpg'
p8292
ag8102
aa(lp8293
S'frame0.jpg'
p8294
ag8102
aa(lp8295
S'frame1.jpg'
p8296
ag8102
aa(lp8297
S'frame10.jpg'
p8298
ag8102
aa(lp8299
S'frame11.jpg'
p8300
ag8102
aa(lp8301
S'frame12.jpg'
p8302
ag8102
aa(lp8303
S'frame13.jpg'
p8304
ag8102
aa(lp8305
S'frame2.jpg'
p8306
ag8102
aa(lp8307
S'frame3.jpg'
p8308
ag8102
aa(lp8309
S'frame4.jpg'
p8310
ag8102
aa(lp8311
S'frame5.jpg'
p8312
ag8102
aa(lp8313
S'frame6.jpg'
p8314
ag8102
aa(lp8315
S'frame7.jpg'
p8316
ag8102
aa(lp8317
S'frame8.jpg'
p8318
ag8102
aa(lp8319
S'frame9.jpg'
p8320
ag8102
aa(lp8321
S'PavOne0.jpg'
p8322
ag8102
aa(lp8323
S'PavOne1.jpg'
p8324
ag8102
aa(lp8325
S'PavOne10.jpg'
p8326
ag8102
aa(lp8327
S'PavOne11.jpg'
p8328
ag8102
aa(lp8329
S'PavOne12.jpg'
p8330
ag8102
aa(lp8331
S'PavOne13.jpg'
p8332
ag8102
aa(lp8333
S'PavOne14.jpg'
p8334
ag8102
aa(lp8335
S'PavOne15.jpg'
p8336
ag8102
aa(lp8337
S'PavOne16.jpg'
p8338
ag8102
aa(lp8339
S'PavOne17.jpg'
p8340
ag8102
aa(lp8341
S'PavOne18.jpg'
p8342
ag8102
aa(lp8343
S'PavOne19.jpg'
p8344
ag8102
aa(lp8345
S'PavOne2.jpg'
p8346
ag8102
aa(lp8347
S'PavOne20.jpg'
p8348
ag8102
aa(lp8349
S'PavOne21.jpg'
p8350
ag8102
aa(lp8351
S'PavOne22.jpg'
p8352
ag8102
aa(lp8353
S'PavOne3.jpg'
p8354
ag8102
aa(lp8355
S'PavOne4.jpg'
p8356
ag8102
aa(lp8357
S'PavOne5.jpg'
p8358
ag8102
aa(lp8359
S'PavOne6.jpg'
p8360
ag8102
aa(lp8361
S'PavOne7.jpg'
p8362
ag8102
aa(lp8363
S'PavOne8.jpg'
p8364
ag8102
aa(lp8365
S'PavOne9.jpg'
p8366
ag8102
aa(lp8367
S'PavThree0.jpg'
p8368
ag8102
aa(lp8369
S'PavThree1.jpg'
p8370
ag8102
aa(lp8371
S'PavThree10.jpg'
p8372
ag8102
aa(lp8373
S'PavThree11.jpg'
p8374
ag8102
aa(lp8375
S'PavThree12.jpg'
p8376
ag8102
aa(lp8377
S'PavThree13.jpg'
p8378
ag8102
aa(lp8379
S'PavThree14.jpg'
p8380
ag8102
aa(lp8381
S'PavThree15.jpg'
p8382
ag8102
aa(lp8383
S'PavThree16.jpg'
p8384
ag8102
aa(lp8385
S'PavThree17.jpg'
p8386
ag8102
aa(lp8387
S'PavThree18.jpg'
p8388
ag8102
aa(lp8389
S'PavThree19.jpg'
p8390
ag8102
aa(lp8391
S'PavThree2.jpg'
p8392
ag8102
aa(lp8393
S'PavThree20.jpg'
p8394
ag8102
aa(lp8395
S'PavThree21.jpg'
p8396
ag8102
aa(lp8397
S'PavThree3.jpg'
p8398
ag8102
aa(lp8399
S'PavThree4.jpg'
p8400
ag8102
aa(lp8401
S'PavThree5.jpg'
p8402
ag8102
aa(lp8403
S'PavThree6.jpg'
p8404
ag8102
aa(lp8405
S'PavThree7.jpg'
p8406
ag8102
aa(lp8407
S'PavThree8.jpg'
p8408
ag8102
aa(lp8409
S'PavThree9.jpg'
p8410
ag8102
aa(lp8411
S'PavTwo0.jpg'
p8412
ag8102
aa(lp8413
S'PavTwo1.jpg'
p8414
ag8102
aa(lp8415
S'PavTwo10.jpg'
p8416
ag8102
aa(lp8417
S'PavTwo11.jpg'
p8418
ag8102
aa(lp8419
S'PavTwo12.jpg'
p8420
ag8102
aa(lp8421
S'PavTwo13.jpg'
p8422
ag8102
aa(lp8423
S'PavTwo14.jpg'
p8424
ag8102
aa(lp8425
S'PavTwo15.jpg'
p8426
ag8102
aa(lp8427
S'PavTwo16.jpg'
p8428
ag8102
aa(lp8429
S'PavTwo17.jpg'
p8430
ag8102
aa(lp8431
S'PavTwo18.jpg'
p8432
ag8102
aa(lp8433
S'PavTwo2.jpg'
p8434
ag8102
aa(lp8435
S'PavTwo3.jpg'
p8436
ag8102
aa(lp8437
S'PavTwo4.jpg'
p8438
ag8102
aa(lp8439
S'PavTwo5.jpg'
p8440
ag8102
aa(lp8441
S'PavTwo6.jpg'
p8442
ag8102
aa(lp8443
S'PavTwo7.jpg'
p8444
ag8102
aa(lp8445
S'PavTwo8.jpg'
p8446
ag8102
aa(lp8447
S'PavTwo9.jpg'
p8448
ag8102
aa(lp8449
S'Payel1.jpg'
p8450
ag8102
aa(lp8451
S'Payel10.jpg'
p8452
ag8102
aa(lp8453
S'Payel11.jpg'
p8454
ag8102
aa(lp8455
S'Payel12.jpg'
p8456
ag8102
aa(lp8457
S'Payel13.jpg'
p8458
ag8102
aa(lp8459
S'Payel14.jpg'
p8460
ag8102
aa(lp8461
S'Payel15.jpg'
p8462
ag8102
aa(lp8463
S'Payel16.jpg'
p8464
ag8102
aa(lp8465
S'Payel17.jpg'
p8466
ag8102
aa(lp8467
S'Payel2.jpg'
p8468
ag8102
aa(lp8469
S'Payel29.jpg'
p8470
ag8102
aa(lp8471
S'Payel3.jpg'
p8472
ag8102
aa(lp8473
S'Payel30.jpg'
p8474
ag8102
aa(lp8475
S'Payel31.jpg'
p8476
ag8102
aa(lp8477
S'Payel32.jpg'
p8478
ag8102
aa(lp8479
S'Payel33.jpg'
p8480
ag8102
aa(lp8481
S'Payel34.jpg'
p8482
ag8102
aa(lp8483
S'Payel35.jpg'
p8484
ag8102
aa(lp8485
S'Payel36.jpg'
p8486
ag8102
aa(lp8487
S'Payel37.jpg'
p8488
ag8102
aa(lp8489
S'Payel4.jpg'
p8490
ag8102
aa(lp8491
S'Payel45.jpg'
p8492
ag8102
aa(lp8493
S'Payel46.jpg'
p8494
ag8102
aa(lp8495
S'Payel47.jpg'
p8496
ag8102
aa(lp8497
S'Payel48.jpg'
p8498
ag8102
aa(lp8499
S'Payel49.jpg'
p8500
ag8102
aa(lp8501
S'Payel5.jpg'
p8502
ag8102
aa(lp8503
S'Payel50.jpg'
p8504
ag8102
aa(lp8505
S'Payel51.jpg'
p8506
ag8102
aa(lp8507
S'Payel52.jpg'
p8508
ag8102
aa(lp8509
S'Payel53.jpg'
p8510
ag8102
aa(lp8511
S'Payel54.jpg'
p8512
ag8102
aa(lp8513
S'Payel55.jpg'
p8514
ag8102
aa(lp8515
S'Payel56.jpg'
p8516
ag8102
aa(lp8517
S'Payel57.jpg'
p8518
ag8102
aa(lp8519
S'Payel58.jpg'
p8520
ag8102
aa(lp8521
S'Payel59.jpg'
p8522
ag8102
aa(lp8523
S'Payel6.jpg'
p8524
ag8102
aa(lp8525
S'Payel60.jpg'
p8526
ag8102
aa(lp8527
S'Payel61.jpg'
p8528
ag8102
aa(lp8529
S'Payel66.jpg'
p8530
ag8102
aa(lp8531
S'Payel67.jpg'
p8532
ag8102
aa(lp8533
S'Payel68.jpg'
p8534
ag8102
aa(lp8535
S'Payel69.jpg'
p8536
ag8102
aa(lp8537
S'Payel7.jpg'
p8538
ag8102
aa(lp8539
S'Payel70.jpg'
p8540
ag8102
aa(lp8541
S'Payel71.jpg'
p8542
ag8102
aa(lp8543
S'Payel72.jpg'
p8544
ag8102
aa(lp8545
S'Payel73.jpg'
p8546
ag8102
aa(lp8547
S'Payel74.jpg'
p8548
ag8102
aa(lp8549
S'Payel75.jpg'
p8550
ag8102
aa(lp8551
S'Payel76.jpg'
p8552
ag8102
aa(lp8553
S'Payel8.jpg'
p8554
ag8102
aa(lp8555
S'Payel9.jpg'
p8556
ag8102
aa(lp8557
S'PTwo1.jpg'
p8558
ag8102
aa(lp8559
S'PTwo10.jpg'
p8560
ag8102
aa(lp8561
S'PTwo11.jpg'
p8562
ag8102
aa(lp8563
S'PTwo12.jpg'
p8564
ag8102
aa(lp8565
S'PTwo13.jpg'
p8566
ag8102
aa(lp8567
S'PTwo14.jpg'
p8568
ag8102
aa(lp8569
S'PTwo15.jpg'
p8570
ag8102
aa(lp8571
S'PTwo16.jpg'
p8572
ag8102
aa(lp8573
S'PTwo17.jpg'
p8574
ag8102
aa(lp8575
S'PTwo18.jpg'
p8576
ag8102
aa(lp8577
S'PTwo19.jpg'
p8578
ag8102
aa(lp8579
S'PTwo2.jpg'
p8580
ag8102
aa(lp8581
S'PTwo20.jpg'
p8582
ag8102
aa(lp8583
S'PTwo21.jpg'
p8584
ag8102
aa(lp8585
S'PTwo22.jpg'
p8586
ag8102
aa(lp8587
S'PTwo23.jpg'
p8588
ag8102
aa(lp8589
S'PTwo24.jpg'
p8590
ag8102
aa(lp8591
S'PTwo25.jpg'
p8592
ag8102
aa(lp8593
S'PTwo26.jpg'
p8594
ag8102
aa(lp8595
S'PTwo27.jpg'
p8596
ag8102
aa(lp8597
S'PTwo28.jpg'
p8598
ag8102
aa(lp8599
S'PTwo29.jpg'
p8600
ag8102
aa(lp8601
S'PTwo3.jpg'
p8602
ag8102
aa(lp8603
S'PTwo30.jpg'
p8604
ag8102
aa(lp8605
S'PTwo31.jpg'
p8606
ag8102
aa(lp8607
S'PTwo32.jpg'
p8608
ag8102
aa(lp8609
S'PTwo33.jpg'
p8610
ag8102
aa(lp8611
S'PTwo34.jpg'
p8612
ag8102
aa(lp8613
S'PTwo35.jpg'
p8614
ag8102
aa(lp8615
S'PTwo36.jpg'
p8616
ag8102
aa(lp8617
S'PTwo37.jpg'
p8618
ag8102
aa(lp8619
S'PTwo38.jpg'
p8620
ag8102
aa(lp8621
S'PTwo39.jpg'
p8622
ag8102
aa(lp8623
S'PTwo4.jpg'
p8624
ag8102
aa(lp8625
S'PTwo40.jpg'
p8626
ag8102
aa(lp8627
S'PTwo41.jpg'
p8628
ag8102
aa(lp8629
S'PTwo42.jpg'
p8630
ag8102
aa(lp8631
S'PTwo43.jpg'
p8632
ag8102
aa(lp8633
S'PTwo5.jpg'
p8634
ag8102
aa(lp8635
S'PTwo6.jpg'
p8636
ag8102
aa(lp8637
S'PTwo7.jpg'
p8638
ag8102
aa(lp8639
S'PTwo8.jpg'
p8640
ag8102
aa(lp8641
S'PTwo9.jpg'
p8642
ag8102
aa(lp8643
S'Saumya100.jpg'
p8644
ag8102
aa(lp8645
S'Saumya101.jpg'
p8646
ag8102
aa(lp8647
S'Saumya102.jpg'
p8648
ag8102
aa(lp8649
S'Saumya18.jpg'
p8650
ag8102
aa(lp8651
S'Saumya19.jpg'
p8652
ag8102
aa(lp8653
S'Saumya20.jpg'
p8654
ag8102
aa(lp8655
S'Saumya21.jpg'
p8656
ag8102
aa(lp8657
S'Saumya22.jpg'
p8658
ag8102
aa(lp8659
S'Saumya23.jpg'
p8660
ag8102
aa(lp8661
S'Saumya24.jpg'
p8662
ag8102
aa(lp8663
S'Saumya25.jpg'
p8664
ag8102
aa(lp8665
S'Saumya26.jpg'
p8666
ag8102
aa(lp8667
S'Saumya27.jpg'
p8668
ag8102
aa(lp8669
S'Saumya28.jpg'
p8670
ag8102
aa(lp8671
S'Saumya29.jpg'
p8672
ag8102
aa(lp8673
S'Saumya30.jpg'
p8674
ag8102
aa(lp8675
S'Saumya56.jpg'
p8676
ag8102
aa(lp8677
S'Saumya57.jpg'
p8678
ag8102
aa(lp8679
S'Saumya58.jpg'
p8680
ag8102
aa(lp8681
S'Saumya59.jpg'
p8682
ag8102
aa(lp8683
S'Saumya60.jpg'
p8684
ag8102
aa(lp8685
S'Saumya61.jpg'
p8686
ag8102
aa(lp8687
S'Saumya62.jpg'
p8688
ag8102
aa(lp8689
S'Saumya63.jpg'
p8690
ag8102
aa(lp8691
S'Saumya64.jpg'
p8692
ag8102
aa(lp8693
S'Saumya65.jpg'
p8694
ag8102
aa(lp8695
S'Saumya66.jpg'
p8696
ag8102
aa(lp8697
S'Saumya67.jpg'
p8698
ag8102
aa(lp8699
S'Saumya68.jpg'
p8700
ag8102
aa(lp8701
S'Saumya69.jpg'
p8702
ag8102
aa(lp8703
S'Saumya70.jpg'
p8704
ag8102
aa(lp8705
S'Saumya71.jpg'
p8706
ag8102
aa(lp8707
S'Saumya72.jpg'
p8708
ag8102
aa(lp8709
S'Saumya73.jpg'
p8710
ag8102
aa(lp8711
S'Saumya74.jpg'
p8712
ag8102
aa(lp8713
S'Saumya85.jpg'
p8714
ag8102
aa(lp8715
S'Saumya86.jpg'
p8716
ag8102
aa(lp8717
S'Saumya87.jpg'
p8718
ag8102
aa(lp8719
S'Saumya88.jpg'
p8720
ag8102
aa(lp8721
S'Saumya89.jpg'
p8722
ag8102
aa(lp8723
S'Saumya90.jpg'
p8724
ag8102
aa(lp8725
S'Saumya91.jpg'
p8726
ag8102
aa(lp8727
S'Saumya92.jpg'
p8728
ag8102
aa(lp8729
S'Saumya93.jpg'
p8730
ag8102
aa(lp8731
S'Saumya94.jpg'
p8732
ag8102
aa(lp8733
S'Saumya95.jpg'
p8734
ag8102
aa(lp8735
S'Saumya96.jpg'
p8736
ag8102
aa(lp8737
S'Saumya97.jpg'
p8738
ag8102
aa(lp8739
S'Saumya98.jpg'
p8740
ag8102
aa(lp8741
S'Saumya99.jpg'
p8742
ag8102
aa(lp8743
S'SSec1.jpg'
p8744
ag8102
aa(lp8745
S'SSec10.jpg'
p8746
ag8102
aa(lp8747
S'SSec11.jpg'
p8748
ag8102
aa(lp8749
S'SSec12.jpg'
p8750
ag8102
aa(lp8751
S'SSec13.jpg'
p8752
ag8102
aa(lp8753
S'SSec14.jpg'
p8754
ag8102
aa(lp8755
S'SSec15.jpg'
p8756
ag8102
aa(lp8757
S'SSec16.jpg'
p8758
ag8102
aa(lp8759
S'SSec17.jpg'
p8760
ag8102
aa(lp8761
S'SSec18.jpg'
p8762
ag8102
aa(lp8763
S'SSec19.jpg'
p8764
ag8102
aa(lp8765
S'SSec2.jpg'
p8766
ag8102
aa(lp8767
S'SSec20.jpg'
p8768
ag8102
aa(lp8769
S'SSec21.jpg'
p8770
ag8102
aa(lp8771
S'SSec22.jpg'
p8772
ag8102
aa(lp8773
S'SSec23.jpg'
p8774
ag8102
aa(lp8775
S'SSec24.jpg'
p8776
ag8102
aa(lp8777
S'SSec25.jpg'
p8778
ag8102
aa(lp8779
S'SSec26.jpg'
p8780
ag8102
aa(lp8781
S'SSec27.jpg'
p8782
ag8102
aa(lp8783
S'SSec28.jpg'
p8784
ag8102
aa(lp8785
S'SSec29.jpg'
p8786
ag8102
aa(lp8787
S'SSec3.jpg'
p8788
ag8102
aa(lp8789
S'SSec30.jpg'
p8790
ag8102
aa(lp8791
S'SSec31.jpg'
p8792
ag8102
aa(lp8793
S'SSec32.jpg'
p8794
ag8102
aa(lp8795
S'SSec33.jpg'
p8796
ag8102
aa(lp8797
S'SSec34.jpg'
p8798
ag8102
aa(lp8799
S'SSec35.jpg'
p8800
ag8102
aa(lp8801
S'SSec36.jpg'
p8802
ag8102
aa(lp8803
S'SSec37.jpg'
p8804
ag8102
aa(lp8805
S'SSec38.jpg'
p8806
ag8102
aa(lp8807
S'SSec39.jpg'
p8808
ag8102
aa(lp8809
S'SSec4.jpg'
p8810
ag8102
aa(lp8811
S'SSec40.jpg'
p8812
ag8102
aa(lp8813
S'SSec41.jpg'
p8814
ag8102
aa(lp8815
S'SSec42.jpg'
p8816
ag8102
aa(lp8817
S'SSec43.jpg'
p8818
ag8102
aa(lp8819
S'SSec44.jpg'
p8820
ag8102
aa(lp8821
S'SSec45.jpg'
p8822
ag8102
aa(lp8823
S'SSec46.jpg'
p8824
ag8102
aa(lp8825
S'SSec47.jpg'
p8826
ag8102
aa(lp8827
S'SSec48.jpg'
p8828
ag8102
aa(lp8829
S'SSec49.jpg'
p8830
ag8102
aa(lp8831
S'SSec5.jpg'
p8832
ag8102
aa(lp8833
S'SSec50.jpg'
p8834
ag8102
aa(lp8835
S'SSec51.jpg'
p8836
ag8102
aa(lp8837
S'SSec52.jpg'
p8838
ag8102
aa(lp8839
S'SSec53.jpg'
p8840
ag8102
aa(lp8841
S'SSec6.jpg'
p8842
ag8102
aa(lp8843
S'SSec7.jpg'
p8844
ag8102
aa(lp8845
S'SSec8.jpg'
p8846
ag8102
aa(lp8847
S'SSec9.jpg'
p8848
ag8102
aa.